
build/example/example.elf:     file format elf32-littleriscv


Disassembly of section .text:

00000000 <.text>:
       0:	00020117          	auipc	sp,0x20
       4:	00010113          	addi	sp,sp,0 # 0x20000
       8:	00003517          	auipc	a0,0x3
       c:	91850513          	addi	a0,a0,-1768 # 0x2920
      10:	00010597          	auipc	a1,0x10
      14:	ff058593          	addi	a1,a1,-16 # 0x10000
      18:	00010617          	auipc	a2,0x10
      1c:	fe860613          	addi	a2,a2,-24 # 0x10000
      20:	00c5fc63          	bgeu	a1,a2,0x38
      24:	00052283          	lw	t0,0(a0)
      28:	0055a023          	sw	t0,0(a1)
      2c:	00450513          	addi	a0,a0,4
      30:	00458593          	addi	a1,a1,4
      34:	fedff06f          	jal	zero,0x20
      38:	00003517          	auipc	a0,0x3
      3c:	8f050513          	addi	a0,a0,-1808 # 0x2928
      40:	00010597          	auipc	a1,0x10
      44:	fc858593          	addi	a1,a1,-56 # 0x10008
      48:	00010617          	auipc	a2,0x10
      4c:	51460613          	addi	a2,a2,1300 # 0x1055c
      50:	00c5fc63          	bgeu	a1,a2,0x68
      54:	00052283          	lw	t0,0(a0)
      58:	0055a023          	sw	t0,0(a1)
      5c:	00450513          	addi	a0,a0,4
      60:	00458593          	addi	a1,a1,4
      64:	fedff06f          	jal	zero,0x50
      68:	00010517          	auipc	a0,0x10
      6c:	50450513          	addi	a0,a0,1284 # 0x1056c
      70:	00011597          	auipc	a1,0x11
      74:	14c58593          	addi	a1,a1,332 # 0x111bc
      78:	00000613          	addi	a2,zero,0
      7c:	00b57863          	bgeu	a0,a1,0x8c
      80:	00c52023          	sw	a2,0(a0)
      84:	00450513          	addi	a0,a0,4
      88:	ff5ff06f          	jal	zero,0x7c
      8c:	195000ef          	jal	ra,0xa20
      90:	00000073          	ecall
      94:	00100073          	ebreak
      98:	fd010113          	addi	sp,sp,-48
      9c:	02112623          	sw	ra,44(sp)
      a0:	02812423          	sw	s0,40(sp)
      a4:	03010413          	addi	s0,sp,48
      a8:	fca42e23          	sw	a0,-36(s0)
      ac:	fcb42c23          	sw	a1,-40(s0)
      b0:	fdc42783          	lw	a5,-36(s0)
      b4:	0007a783          	lw	a5,0(a5)
      b8:	fef42623          	sw	a5,-20(s0)
      bc:	fd842783          	lw	a5,-40(s0)
      c0:	0007a703          	lw	a4,0(a5)
      c4:	fdc42783          	lw	a5,-36(s0)
      c8:	00e7a023          	sw	a4,0(a5)
      cc:	fd842783          	lw	a5,-40(s0)
      d0:	fec42703          	lw	a4,-20(s0)
      d4:	00e7a023          	sw	a4,0(a5)
      d8:	00000013          	addi	zero,zero,0
      dc:	02c12083          	lw	ra,44(sp)
      e0:	02812403          	lw	s0,40(sp)
      e4:	03010113          	addi	sp,sp,48
      e8:	00008067          	jalr	zero,0(ra)
      ec:	fd010113          	addi	sp,sp,-48
      f0:	02112623          	sw	ra,44(sp)
      f4:	02812423          	sw	s0,40(sp)
      f8:	03010413          	addi	s0,sp,48
      fc:	fca42e23          	sw	a0,-36(s0)
     100:	fcb42c23          	sw	a1,-40(s0)
     104:	fcc42a23          	sw	a2,-44(s0)
     108:	fe042623          	sw	zero,-20(s0)
     10c:	0fc0006f          	jal	zero,0x208
     110:	fec42783          	lw	a5,-20(s0)
     114:	00279793          	slli	a5,a5,0x2
     118:	fd842703          	lw	a4,-40(s0)
     11c:	00f706b3          	add	a3,a4,a5
     120:	fec42703          	lw	a4,-20(s0)
     124:	00070793          	addi	a5,a4,0
     128:	00179793          	slli	a5,a5,0x1
     12c:	00e787b3          	add	a5,a5,a4
     130:	00279793          	slli	a5,a5,0x2
     134:	00078713          	addi	a4,a5,0
     138:	fdc42783          	lw	a5,-36(s0)
     13c:	00e787b3          	add	a5,a5,a4
     140:	0006a703          	lw	a4,0(a3)
     144:	00e7a023          	sw	a4,0(a5)
     148:	fec42783          	lw	a5,-20(s0)
     14c:	02f05463          	bge	zero,a5,0x174
     150:	fec42703          	lw	a4,-20(s0)
     154:	00070793          	addi	a5,a4,0
     158:	00179793          	slli	a5,a5,0x1
     15c:	00e787b3          	add	a5,a5,a4
     160:	00279793          	slli	a5,a5,0x2
     164:	ff478793          	addi	a5,a5,-12
     168:	fdc42703          	lw	a4,-36(s0)
     16c:	00f70733          	add	a4,a4,a5
     170:	0080006f          	jal	zero,0x178
     174:	00000713          	addi	a4,zero,0
     178:	fec42683          	lw	a3,-20(s0)
     17c:	00068793          	addi	a5,a3,0
     180:	00179793          	slli	a5,a5,0x1
     184:	00d787b3          	add	a5,a5,a3
     188:	00279793          	slli	a5,a5,0x2
     18c:	00078693          	addi	a3,a5,0
     190:	fdc42783          	lw	a5,-36(s0)
     194:	00d787b3          	add	a5,a5,a3
     198:	00e7a223          	sw	a4,4(a5)
     19c:	fec42783          	lw	a5,-20(s0)
     1a0:	00178793          	addi	a5,a5,1
     1a4:	fd442703          	lw	a4,-44(s0)
     1a8:	02e7d663          	bge	a5,a4,0x1d4
     1ac:	fec42783          	lw	a5,-20(s0)
     1b0:	00178713          	addi	a4,a5,1
     1b4:	00070793          	addi	a5,a4,0
     1b8:	00179793          	slli	a5,a5,0x1
     1bc:	00e787b3          	add	a5,a5,a4
     1c0:	00279793          	slli	a5,a5,0x2
     1c4:	00078713          	addi	a4,a5,0
     1c8:	fdc42783          	lw	a5,-36(s0)
     1cc:	00e78733          	add	a4,a5,a4
     1d0:	0080006f          	jal	zero,0x1d8
     1d4:	00000713          	addi	a4,zero,0
     1d8:	fec42683          	lw	a3,-20(s0)
     1dc:	00068793          	addi	a5,a3,0
     1e0:	00179793          	slli	a5,a5,0x1
     1e4:	00d787b3          	add	a5,a5,a3
     1e8:	00279793          	slli	a5,a5,0x2
     1ec:	00078693          	addi	a3,a5,0
     1f0:	fdc42783          	lw	a5,-36(s0)
     1f4:	00d787b3          	add	a5,a5,a3
     1f8:	00e7a423          	sw	a4,8(a5)
     1fc:	fec42783          	lw	a5,-20(s0)
     200:	00178793          	addi	a5,a5,1
     204:	fef42623          	sw	a5,-20(s0)
     208:	fec42703          	lw	a4,-20(s0)
     20c:	fd442783          	lw	a5,-44(s0)
     210:	f0f740e3          	blt	a4,a5,0x110
     214:	fdc42783          	lw	a5,-36(s0)
     218:	00078513          	addi	a0,a5,0
     21c:	02c12083          	lw	ra,44(sp)
     220:	02812403          	lw	s0,40(sp)
     224:	03010113          	addi	sp,sp,48
     228:	00008067          	jalr	zero,0(ra)
     22c:	fd010113          	addi	sp,sp,-48
     230:	02112623          	sw	ra,44(sp)
     234:	02812423          	sw	s0,40(sp)
     238:	03010413          	addi	s0,sp,48
     23c:	fca42e23          	sw	a0,-36(s0)
     240:	fdc42783          	lw	a5,-36(s0)
     244:	fef42623          	sw	a5,-20(s0)
     248:	0100006f          	jal	zero,0x258
     24c:	fec42783          	lw	a5,-20(s0)
     250:	0087a783          	lw	a5,8(a5)
     254:	fef42623          	sw	a5,-20(s0)
     258:	fec42783          	lw	a5,-20(s0)
     25c:	0087a783          	lw	a5,8(a5)
     260:	fe0796e3          	bne	a5,zero,0x24c
     264:	fec42783          	lw	a5,-20(s0)
     268:	00078513          	addi	a0,a5,0
     26c:	02c12083          	lw	ra,44(sp)
     270:	02812403          	lw	s0,40(sp)
     274:	03010113          	addi	sp,sp,48
     278:	00008067          	jalr	zero,0(ra)
     27c:	fd010113          	addi	sp,sp,-48
     280:	02112623          	sw	ra,44(sp)
     284:	02812423          	sw	s0,40(sp)
     288:	03010413          	addi	s0,sp,48
     28c:	fca42e23          	sw	a0,-36(s0)
     290:	fe042623          	sw	zero,-20(s0)
     294:	00100793          	addi	a5,zero,1
     298:	fef42423          	sw	a5,-24(s0)
     29c:	06c0006f          	jal	zero,0x308
     2a0:	fdc42783          	lw	a5,-36(s0)
     2a4:	fef42223          	sw	a5,-28(s0)
     2a8:	fe042423          	sw	zero,-24(s0)
     2ac:	0440006f          	jal	zero,0x2f0
     2b0:	fe442783          	lw	a5,-28(s0)
     2b4:	0007a703          	lw	a4,0(a5)
     2b8:	fe442783          	lw	a5,-28(s0)
     2bc:	0087a783          	lw	a5,8(a5)
     2c0:	0007a783          	lw	a5,0(a5)
     2c4:	02e7d063          	bge	a5,a4,0x2e4
     2c8:	fe442783          	lw	a5,-28(s0)
     2cc:	0087a783          	lw	a5,8(a5)
     2d0:	00078593          	addi	a1,a5,0
     2d4:	fe442503          	lw	a0,-28(s0)
     2d8:	dc1ff0ef          	jal	ra,0x98
     2dc:	00100793          	addi	a5,zero,1
     2e0:	fef42423          	sw	a5,-24(s0)
     2e4:	fe442783          	lw	a5,-28(s0)
     2e8:	0087a783          	lw	a5,8(a5)
     2ec:	fef42223          	sw	a5,-28(s0)
     2f0:	fe442783          	lw	a5,-28(s0)
     2f4:	0087a783          	lw	a5,8(a5)
     2f8:	fec42703          	lw	a4,-20(s0)
     2fc:	faf71ae3          	bne	a4,a5,0x2b0
     300:	fe442783          	lw	a5,-28(s0)
     304:	fef42623          	sw	a5,-20(s0)
     308:	fe842783          	lw	a5,-24(s0)
     30c:	f8079ae3          	bne	a5,zero,0x2a0
     310:	00000013          	addi	zero,zero,0
     314:	00000013          	addi	zero,zero,0
     318:	02c12083          	lw	ra,44(sp)
     31c:	02812403          	lw	s0,40(sp)
     320:	03010113          	addi	sp,sp,48
     324:	00008067          	jalr	zero,0(ra)
     328:	fd010113          	addi	sp,sp,-48
     32c:	02112623          	sw	ra,44(sp)
     330:	02812423          	sw	s0,40(sp)
     334:	03010413          	addi	s0,sp,48
     338:	fca42e23          	sw	a0,-36(s0)
     33c:	fdc42783          	lw	a5,-36(s0)
     340:	fef42623          	sw	a5,-20(s0)
     344:	fdc42783          	lw	a5,-36(s0)
     348:	fef42423          	sw	a5,-24(s0)
     34c:	0200006f          	jal	zero,0x36c
     350:	fec42783          	lw	a5,-20(s0)
     354:	0087a783          	lw	a5,8(a5)
     358:	fef42623          	sw	a5,-20(s0)
     35c:	fe842783          	lw	a5,-24(s0)
     360:	0087a783          	lw	a5,8(a5)
     364:	0087a783          	lw	a5,8(a5)
     368:	fef42423          	sw	a5,-24(s0)
     36c:	fe842783          	lw	a5,-24(s0)
     370:	0087a783          	lw	a5,8(a5)
     374:	00078a63          	beq	a5,zero,0x388
     378:	fe842783          	lw	a5,-24(s0)
     37c:	0087a783          	lw	a5,8(a5)
     380:	0087a783          	lw	a5,8(a5)
     384:	fc0796e3          	bne	a5,zero,0x350
     388:	fec42783          	lw	a5,-20(s0)
     38c:	0087a783          	lw	a5,8(a5)
     390:	fef42223          	sw	a5,-28(s0)
     394:	fec42783          	lw	a5,-20(s0)
     398:	0007a423          	sw	zero,8(a5)
     39c:	fe442783          	lw	a5,-28(s0)
     3a0:	00078663          	beq	a5,zero,0x3ac
     3a4:	fe442783          	lw	a5,-28(s0)
     3a8:	0007a223          	sw	zero,4(a5)
     3ac:	fe442783          	lw	a5,-28(s0)
     3b0:	00078513          	addi	a0,a5,0
     3b4:	02c12083          	lw	ra,44(sp)
     3b8:	02812403          	lw	s0,40(sp)
     3bc:	03010113          	addi	sp,sp,48
     3c0:	00008067          	jalr	zero,0(ra)
     3c4:	fd010113          	addi	sp,sp,-48
     3c8:	02112623          	sw	ra,44(sp)
     3cc:	02812423          	sw	s0,40(sp)
     3d0:	03010413          	addi	s0,sp,48
     3d4:	fca42e23          	sw	a0,-36(s0)
     3d8:	fcb42c23          	sw	a1,-40(s0)
     3dc:	fe042623          	sw	zero,-20(s0)
     3e0:	fe042423          	sw	zero,-24(s0)
     3e4:	0800006f          	jal	zero,0x464
     3e8:	fdc42783          	lw	a5,-36(s0)
     3ec:	0007a703          	lw	a4,0(a5)
     3f0:	fd842783          	lw	a5,-40(s0)
     3f4:	0007a783          	lw	a5,0(a5)
     3f8:	00e7ce63          	blt	a5,a4,0x414
     3fc:	fdc42783          	lw	a5,-36(s0)
     400:	fef42223          	sw	a5,-28(s0)
     404:	fdc42783          	lw	a5,-36(s0)
     408:	0087a783          	lw	a5,8(a5)
     40c:	fcf42e23          	sw	a5,-36(s0)
     410:	0180006f          	jal	zero,0x428
     414:	fd842783          	lw	a5,-40(s0)
     418:	fef42223          	sw	a5,-28(s0)
     41c:	fd842783          	lw	a5,-40(s0)
     420:	0087a783          	lw	a5,8(a5)
     424:	fcf42c23          	sw	a5,-40(s0)
     428:	fe442783          	lw	a5,-28(s0)
     42c:	fe842703          	lw	a4,-24(s0)
     430:	00e7a223          	sw	a4,4(a5)
     434:	fe442783          	lw	a5,-28(s0)
     438:	0007a423          	sw	zero,8(a5)
     43c:	fe842783          	lw	a5,-24(s0)
     440:	00078a63          	beq	a5,zero,0x454
     444:	fe842783          	lw	a5,-24(s0)
     448:	fe442703          	lw	a4,-28(s0)
     44c:	00e7a423          	sw	a4,8(a5)
     450:	00c0006f          	jal	zero,0x45c
     454:	fe442783          	lw	a5,-28(s0)
     458:	fef42623          	sw	a5,-20(s0)
     45c:	fe442783          	lw	a5,-28(s0)
     460:	fef42423          	sw	a5,-24(s0)
     464:	fdc42783          	lw	a5,-36(s0)
     468:	00078663          	beq	a5,zero,0x474
     46c:	fd842783          	lw	a5,-40(s0)
     470:	f6079ce3          	bne	a5,zero,0x3e8
     474:	fdc42783          	lw	a5,-36(s0)
     478:	00078863          	beq	a5,zero,0x488
     47c:	fdc42783          	lw	a5,-36(s0)
     480:	fef42223          	sw	a5,-28(s0)
     484:	0600006f          	jal	zero,0x4e4
     488:	fd842783          	lw	a5,-40(s0)
     48c:	fef42223          	sw	a5,-28(s0)
     490:	0540006f          	jal	zero,0x4e4
     494:	fe442783          	lw	a5,-28(s0)
     498:	0087a783          	lw	a5,8(a5)
     49c:	fef42023          	sw	a5,-32(s0)
     4a0:	fe442783          	lw	a5,-28(s0)
     4a4:	fe842703          	lw	a4,-24(s0)
     4a8:	00e7a223          	sw	a4,4(a5)
     4ac:	fe442783          	lw	a5,-28(s0)
     4b0:	0007a423          	sw	zero,8(a5)
     4b4:	fe842783          	lw	a5,-24(s0)
     4b8:	00078a63          	beq	a5,zero,0x4cc
     4bc:	fe842783          	lw	a5,-24(s0)
     4c0:	fe442703          	lw	a4,-28(s0)
     4c4:	00e7a423          	sw	a4,8(a5)
     4c8:	00c0006f          	jal	zero,0x4d4
     4cc:	fe442783          	lw	a5,-28(s0)
     4d0:	fef42623          	sw	a5,-20(s0)
     4d4:	fe442783          	lw	a5,-28(s0)
     4d8:	fef42423          	sw	a5,-24(s0)
     4dc:	fe042783          	lw	a5,-32(s0)
     4e0:	fef42223          	sw	a5,-28(s0)
     4e4:	fe442783          	lw	a5,-28(s0)
     4e8:	fa0796e3          	bne	a5,zero,0x494
     4ec:	fec42783          	lw	a5,-20(s0)
     4f0:	00078513          	addi	a0,a5,0
     4f4:	02c12083          	lw	ra,44(sp)
     4f8:	02812403          	lw	s0,40(sp)
     4fc:	03010113          	addi	sp,sp,48
     500:	00008067          	jalr	zero,0(ra)
     504:	fd010113          	addi	sp,sp,-48
     508:	02112623          	sw	ra,44(sp)
     50c:	02812423          	sw	s0,40(sp)
     510:	03010413          	addi	s0,sp,48
     514:	fca42e23          	sw	a0,-36(s0)
     518:	fdc42783          	lw	a5,-36(s0)
     51c:	00078863          	beq	a5,zero,0x52c
     520:	fdc42783          	lw	a5,-36(s0)
     524:	0087a783          	lw	a5,8(a5)
     528:	00079663          	bne	a5,zero,0x534
     52c:	fdc42783          	lw	a5,-36(s0)
     530:	0380006f          	jal	zero,0x568
     534:	fdc42503          	lw	a0,-36(s0)
     538:	df1ff0ef          	jal	ra,0x328
     53c:	fea42623          	sw	a0,-20(s0)
     540:	fdc42503          	lw	a0,-36(s0)
     544:	fc1ff0ef          	jal	ra,0x504
     548:	fea42423          	sw	a0,-24(s0)
     54c:	fec42503          	lw	a0,-20(s0)
     550:	fb5ff0ef          	jal	ra,0x504
     554:	fea42223          	sw	a0,-28(s0)
     558:	fe442583          	lw	a1,-28(s0)
     55c:	fe842503          	lw	a0,-24(s0)
     560:	e65ff0ef          	jal	ra,0x3c4
     564:	00050793          	addi	a5,a0,0
     568:	00078513          	addi	a0,a5,0
     56c:	02c12083          	lw	ra,44(sp)
     570:	02812403          	lw	s0,40(sp)
     574:	03010113          	addi	sp,sp,48
     578:	00008067          	jalr	zero,0(ra)
     57c:	fd010113          	addi	sp,sp,-48
     580:	02112623          	sw	ra,44(sp)
     584:	02812423          	sw	s0,40(sp)
     588:	03010413          	addi	s0,sp,48
     58c:	fca42e23          	sw	a0,-36(s0)
     590:	fcb42c23          	sw	a1,-40(s0)
     594:	fd842783          	lw	a5,-40(s0)
     598:	0007a783          	lw	a5,0(a5)
     59c:	fef42223          	sw	a5,-28(s0)
     5a0:	fdc42783          	lw	a5,-36(s0)
     5a4:	0047a783          	lw	a5,4(a5)
     5a8:	fef42623          	sw	a5,-20(s0)
     5ac:	fdc42783          	lw	a5,-36(s0)
     5b0:	fef42423          	sw	a5,-24(s0)
     5b4:	04c0006f          	jal	zero,0x600
     5b8:	fe842783          	lw	a5,-24(s0)
     5bc:	0007a783          	lw	a5,0(a5)
     5c0:	fe442703          	lw	a4,-28(s0)
     5c4:	02f74863          	blt	a4,a5,0x5f4
     5c8:	fec42783          	lw	a5,-20(s0)
     5cc:	00078a63          	beq	a5,zero,0x5e0
     5d0:	fec42783          	lw	a5,-20(s0)
     5d4:	0087a783          	lw	a5,8(a5)
     5d8:	fef42623          	sw	a5,-20(s0)
     5dc:	00c0006f          	jal	zero,0x5e8
     5e0:	fdc42783          	lw	a5,-36(s0)
     5e4:	fef42623          	sw	a5,-20(s0)
     5e8:	fe842583          	lw	a1,-24(s0)
     5ec:	fec42503          	lw	a0,-20(s0)
     5f0:	aa9ff0ef          	jal	ra,0x98
     5f4:	fe842783          	lw	a5,-24(s0)
     5f8:	0087a783          	lw	a5,8(a5)
     5fc:	fef42423          	sw	a5,-24(s0)
     600:	fe842703          	lw	a4,-24(s0)
     604:	fd842783          	lw	a5,-40(s0)
     608:	faf718e3          	bne	a4,a5,0x5b8
     60c:	fec42783          	lw	a5,-20(s0)
     610:	00078a63          	beq	a5,zero,0x624
     614:	fec42783          	lw	a5,-20(s0)
     618:	0087a783          	lw	a5,8(a5)
     61c:	fef42623          	sw	a5,-20(s0)
     620:	00c0006f          	jal	zero,0x62c
     624:	fdc42783          	lw	a5,-36(s0)
     628:	fef42623          	sw	a5,-20(s0)
     62c:	fd842583          	lw	a1,-40(s0)
     630:	fec42503          	lw	a0,-20(s0)
     634:	a65ff0ef          	jal	ra,0x98
     638:	fec42783          	lw	a5,-20(s0)
     63c:	00078513          	addi	a0,a5,0
     640:	02c12083          	lw	ra,44(sp)
     644:	02812403          	lw	s0,40(sp)
     648:	03010113          	addi	sp,sp,48
     64c:	00008067          	jalr	zero,0(ra)
     650:	fd010113          	addi	sp,sp,-48
     654:	02112623          	sw	ra,44(sp)
     658:	02812423          	sw	s0,40(sp)
     65c:	03010413          	addi	s0,sp,48
     660:	fca42e23          	sw	a0,-36(s0)
     664:	fcb42c23          	sw	a1,-40(s0)
     668:	fdc42783          	lw	a5,-36(s0)
     66c:	06078263          	beq	a5,zero,0x6d0
     670:	fd842783          	lw	a5,-40(s0)
     674:	04078e63          	beq	a5,zero,0x6d0
     678:	fdc42703          	lw	a4,-36(s0)
     67c:	fd842783          	lw	a5,-40(s0)
     680:	04f70863          	beq	a4,a5,0x6d0
     684:	fd842783          	lw	a5,-40(s0)
     688:	0087a783          	lw	a5,8(a5)
     68c:	fdc42703          	lw	a4,-36(s0)
     690:	04f70063          	beq	a4,a5,0x6d0
     694:	fd842583          	lw	a1,-40(s0)
     698:	fdc42503          	lw	a0,-36(s0)
     69c:	ee1ff0ef          	jal	ra,0x57c
     6a0:	fea42623          	sw	a0,-20(s0)
     6a4:	fec42783          	lw	a5,-20(s0)
     6a8:	0047a783          	lw	a5,4(a5)
     6ac:	00078593          	addi	a1,a5,0
     6b0:	fdc42503          	lw	a0,-36(s0)
     6b4:	f9dff0ef          	jal	ra,0x650
     6b8:	fec42783          	lw	a5,-20(s0)
     6bc:	0087a783          	lw	a5,8(a5)
     6c0:	fd842583          	lw	a1,-40(s0)
     6c4:	00078513          	addi	a0,a5,0
     6c8:	f89ff0ef          	jal	ra,0x650
     6cc:	0080006f          	jal	zero,0x6d4
     6d0:	00000013          	addi	zero,zero,0
     6d4:	02c12083          	lw	ra,44(sp)
     6d8:	02812403          	lw	s0,40(sp)
     6dc:	03010113          	addi	sp,sp,48
     6e0:	00008067          	jalr	zero,0(ra)
     6e4:	fe010113          	addi	sp,sp,-32
     6e8:	00112e23          	sw	ra,28(sp)
     6ec:	00812c23          	sw	s0,24(sp)
     6f0:	02010413          	addi	s0,sp,32
     6f4:	fea42623          	sw	a0,-20(s0)
     6f8:	fec42503          	lw	a0,-20(s0)
     6fc:	b31ff0ef          	jal	ra,0x22c
     700:	00050793          	addi	a5,a0,0
     704:	00078593          	addi	a1,a5,0
     708:	fec42503          	lw	a0,-20(s0)
     70c:	f45ff0ef          	jal	ra,0x650
     710:	00000013          	addi	zero,zero,0
     714:	01c12083          	lw	ra,28(sp)
     718:	01812403          	lw	s0,24(sp)
     71c:	02010113          	addi	sp,sp,32
     720:	00008067          	jalr	zero,0(ra)
     724:	fd010113          	addi	sp,sp,-48
     728:	02112623          	sw	ra,44(sp)
     72c:	02812423          	sw	s0,40(sp)
     730:	03010413          	addi	s0,sp,48
     734:	fca42e23          	sw	a0,-36(s0)
     738:	fcb42c23          	sw	a1,-40(s0)
     73c:	fcc42a23          	sw	a2,-44(s0)
     740:	fe042623          	sw	zero,-20(s0)
     744:	fdc42783          	lw	a5,-36(s0)
     748:	fef42423          	sw	a5,-24(s0)
     74c:	0380006f          	jal	zero,0x784
     750:	fec42783          	lw	a5,-20(s0)
     754:	00279793          	slli	a5,a5,0x2
     758:	fd842703          	lw	a4,-40(s0)
     75c:	00f707b3          	add	a5,a4,a5
     760:	fe842703          	lw	a4,-24(s0)
     764:	00072703          	lw	a4,0(a4)
     768:	00e7a023          	sw	a4,0(a5)
     76c:	fe842783          	lw	a5,-24(s0)
     770:	0087a783          	lw	a5,8(a5)
     774:	fef42423          	sw	a5,-24(s0)
     778:	fec42783          	lw	a5,-20(s0)
     77c:	00178793          	addi	a5,a5,1
     780:	fef42623          	sw	a5,-20(s0)
     784:	fe842783          	lw	a5,-24(s0)
     788:	00078863          	beq	a5,zero,0x798
     78c:	fec42703          	lw	a4,-20(s0)
     790:	fd442783          	lw	a5,-44(s0)
     794:	faf74ee3          	blt	a4,a5,0x750
     798:	00000013          	addi	zero,zero,0
     79c:	02c12083          	lw	ra,44(sp)
     7a0:	02812403          	lw	s0,40(sp)
     7a4:	03010113          	addi	sp,sp,48
     7a8:	00008067          	jalr	zero,0(ra)
     7ac:	fd010113          	addi	sp,sp,-48
     7b0:	02112623          	sw	ra,44(sp)
     7b4:	02812423          	sw	s0,40(sp)
     7b8:	03010413          	addi	s0,sp,48
     7bc:	fca42e23          	sw	a0,-36(s0)
     7c0:	fcb42c23          	sw	a1,-40(s0)
     7c4:	00100793          	addi	a5,zero,1
     7c8:	fef42623          	sw	a5,-20(s0)
     7cc:	0500006f          	jal	zero,0x81c
     7d0:	fec42703          	lw	a4,-20(s0)
     7d4:	400007b7          	lui	a5,0x40000
     7d8:	fff78793          	addi	a5,a5,-1 # 0x3fffffff
     7dc:	00f707b3          	add	a5,a4,a5
     7e0:	00279793          	slli	a5,a5,0x2
     7e4:	fdc42703          	lw	a4,-36(s0)
     7e8:	00f707b3          	add	a5,a4,a5
     7ec:	0007a703          	lw	a4,0(a5)
     7f0:	fec42783          	lw	a5,-20(s0)
     7f4:	00279793          	slli	a5,a5,0x2
     7f8:	fdc42683          	lw	a3,-36(s0)
     7fc:	00f687b3          	add	a5,a3,a5
     800:	0007a783          	lw	a5,0(a5)
     804:	00e7d663          	bge	a5,a4,0x810
     808:	00000793          	addi	a5,zero,0
     80c:	0200006f          	jal	zero,0x82c
     810:	fec42783          	lw	a5,-20(s0)
     814:	00178793          	addi	a5,a5,1
     818:	fef42623          	sw	a5,-20(s0)
     81c:	fec42703          	lw	a4,-20(s0)
     820:	fd842783          	lw	a5,-40(s0)
     824:	faf746e3          	blt	a4,a5,0x7d0
     828:	00100793          	addi	a5,zero,1
     82c:	00078513          	addi	a0,a5,0
     830:	02c12083          	lw	ra,44(sp)
     834:	02812403          	lw	s0,40(sp)
     838:	03010113          	addi	sp,sp,48
     83c:	00008067          	jalr	zero,0(ra)
     840:	fd010113          	addi	sp,sp,-48
     844:	02112623          	sw	ra,44(sp)
     848:	02812423          	sw	s0,40(sp)
     84c:	03010413          	addi	s0,sp,48
     850:	fca42e23          	sw	a0,-36(s0)
     854:	fcb42c23          	sw	a1,-40(s0)
     858:	fcc42a23          	sw	a2,-44(s0)
     85c:	fe042623          	sw	zero,-20(s0)
     860:	0440006f          	jal	zero,0x8a4
     864:	fec42783          	lw	a5,-20(s0)
     868:	00279793          	slli	a5,a5,0x2
     86c:	fdc42703          	lw	a4,-36(s0)
     870:	00f707b3          	add	a5,a4,a5
     874:	0007a703          	lw	a4,0(a5)
     878:	fec42783          	lw	a5,-20(s0)
     87c:	00279793          	slli	a5,a5,0x2
     880:	fd842683          	lw	a3,-40(s0)
     884:	00f687b3          	add	a5,a3,a5
     888:	0007a783          	lw	a5,0(a5)
     88c:	00f70663          	beq	a4,a5,0x898
     890:	00000793          	addi	a5,zero,0
     894:	0200006f          	jal	zero,0x8b4
     898:	fec42783          	lw	a5,-20(s0)
     89c:	00178793          	addi	a5,a5,1
     8a0:	fef42623          	sw	a5,-20(s0)
     8a4:	fec42703          	lw	a4,-20(s0)
     8a8:	fd442783          	lw	a5,-44(s0)
     8ac:	faf74ce3          	blt	a4,a5,0x864
     8b0:	00100793          	addi	a5,zero,1
     8b4:	00078513          	addi	a0,a5,0
     8b8:	02c12083          	lw	ra,44(sp)
     8bc:	02812403          	lw	s0,40(sp)
     8c0:	03010113          	addi	sp,sp,48
     8c4:	00008067          	jalr	zero,0(ra)
     8c8:	fe010113          	addi	sp,sp,-32
     8cc:	00112e23          	sw	ra,28(sp)
     8d0:	00812c23          	sw	s0,24(sp)
     8d4:	02010413          	addi	s0,sp,32
     8d8:	000107b7          	lui	a5,0x10
     8dc:	55c7a783          	lw	a5,1372(a5) # 0x1055c
     8e0:	00078513          	addi	a0,a5,0
     8e4:	34c000ef          	jal	ra,0xc30
     8e8:	000117b7          	lui	a5,0x11
     8ec:	00001737          	lui	a4,0x1
     8f0:	38970713          	addi	a4,a4,905 # 0x1389
     8f4:	1ae7ae23          	sw	a4,444(a5) # 0x111bc
     8f8:	000117b7          	lui	a5,0x11
     8fc:	1c07a023          	sw	zero,448(a5) # 0x111c0
     900:	000117b7          	lui	a5,0x11
     904:	1c07a223          	sw	zero,452(a5) # 0x111c4
     908:	fe042623          	sw	zero,-20(s0)
     90c:	09c0006f          	jal	zero,0x9a8
     910:	334000ef          	jal	ra,0xc44
     914:	00050713          	addi	a4,a0,0
     918:	000017b7          	lui	a5,0x1
     91c:	38978593          	addi	a1,a5,905 # 0x1389
     920:	00070513          	addi	a0,a4,0
     924:	7a9010ef          	jal	ra,0x28cc
     928:	00050793          	addi	a5,a0,0
     92c:	fef42423          	sw	a5,-24(s0)
     930:	000107b7          	lui	a5,0x10
     934:	56c78713          	addi	a4,a5,1388 # 0x1056c
     938:	fec42783          	lw	a5,-20(s0)
     93c:	00279793          	slli	a5,a5,0x2
     940:	00f707b3          	add	a5,a4,a5
     944:	fe842703          	lw	a4,-24(s0)
     948:	00e7a023          	sw	a4,0(a5)
     94c:	000117b7          	lui	a5,0x11
     950:	1c47a703          	lw	a4,452(a5) # 0x111c4
     954:	fe842783          	lw	a5,-24(s0)
     958:	00f70733          	add	a4,a4,a5
     95c:	000117b7          	lui	a5,0x11
     960:	1ce7a223          	sw	a4,452(a5) # 0x111c4
     964:	000117b7          	lui	a5,0x11
     968:	1bc7a783          	lw	a5,444(a5) # 0x111bc
     96c:	fe842703          	lw	a4,-24(s0)
     970:	00f75863          	bge	a4,a5,0x980
     974:	000117b7          	lui	a5,0x11
     978:	fe842703          	lw	a4,-24(s0)
     97c:	1ae7ae23          	sw	a4,444(a5) # 0x111bc
     980:	000117b7          	lui	a5,0x11
     984:	1c07a783          	lw	a5,448(a5) # 0x111c0
     988:	fe842703          	lw	a4,-24(s0)
     98c:	00e7d863          	bge	a5,a4,0x99c
     990:	000117b7          	lui	a5,0x11
     994:	fe842703          	lw	a4,-24(s0)
     998:	1ce7a023          	sw	a4,448(a5) # 0x111c0
     99c:	fec42783          	lw	a5,-20(s0)
     9a0:	00178793          	addi	a5,a5,1
     9a4:	fef42623          	sw	a5,-20(s0)
     9a8:	fec42703          	lw	a4,-20(s0)
     9ac:	06300793          	addi	a5,zero,99
     9b0:	f6e7d0e3          	bge	a5,a4,0x910
     9b4:	000107b7          	lui	a5,0x10
     9b8:	56c78793          	addi	a5,a5,1388 # 0x1056c
     9bc:	0007a703          	lw	a4,0(a5)
     9c0:	000107b7          	lui	a5,0x10
     9c4:	56c78793          	addi	a5,a5,1388 # 0x1056c
     9c8:	0c87a783          	lw	a5,200(a5)
     9cc:	00f70733          	add	a4,a4,a5
     9d0:	000107b7          	lui	a5,0x10
     9d4:	56c78793          	addi	a5,a5,1388 # 0x1056c
     9d8:	18c7a783          	lw	a5,396(a5)
     9dc:	00f70733          	add	a4,a4,a5
     9e0:	000117b7          	lui	a5,0x11
     9e4:	1bc7a783          	lw	a5,444(a5) # 0x111bc
     9e8:	00f70733          	add	a4,a4,a5
     9ec:	000117b7          	lui	a5,0x11
     9f0:	1c07a783          	lw	a5,448(a5) # 0x111c0
     9f4:	00f70733          	add	a4,a4,a5
     9f8:	000117b7          	lui	a5,0x11
     9fc:	1c47a783          	lw	a5,452(a5) # 0x111c4
     a00:	00f70733          	add	a4,a4,a5
     a04:	000117b7          	lui	a5,0x11
     a08:	1ce7a423          	sw	a4,456(a5) # 0x111c8
     a0c:	00000013          	addi	zero,zero,0
     a10:	01c12083          	lw	ra,28(sp)
     a14:	01812403          	lw	s0,24(sp)
     a18:	02010113          	addi	sp,sp,32
     a1c:	00008067          	jalr	zero,0(ra)
     a20:	fe010113          	addi	sp,sp,-32
     a24:	00112e23          	sw	ra,28(sp)
     a28:	00812c23          	sw	s0,24(sp)
     a2c:	02010413          	addi	s0,sp,32
     a30:	e99ff0ef          	jal	ra,0x8c8
     a34:	06400613          	addi	a2,zero,100
     a38:	000107b7          	lui	a5,0x10
     a3c:	56c78593          	addi	a1,a5,1388 # 0x1056c
     a40:	000107b7          	lui	a5,0x10
     a44:	6fc78513          	addi	a0,a5,1788 # 0x106fc
     a48:	ea4ff0ef          	jal	ra,0xec
     a4c:	fea42623          	sw	a0,-20(s0)
     a50:	fec42503          	lw	a0,-20(s0)
     a54:	829ff0ef          	jal	ra,0x27c
     a58:	06400613          	addi	a2,zero,100
     a5c:	000117b7          	lui	a5,0x11
     a60:	bac78593          	addi	a1,a5,-1108 # 0x10bac
     a64:	fec42503          	lw	a0,-20(s0)
     a68:	cbdff0ef          	jal	ra,0x724
     a6c:	06400593          	addi	a1,zero,100
     a70:	000117b7          	lui	a5,0x11
     a74:	bac78513          	addi	a0,a5,-1108 # 0x10bac
     a78:	d35ff0ef          	jal	ra,0x7ac
     a7c:	00050713          	addi	a4,a0,0
     a80:	000117b7          	lui	a5,0x11
     a84:	1ce7a623          	sw	a4,460(a5) # 0x111cc
     a88:	06400613          	addi	a2,zero,100
     a8c:	000107b7          	lui	a5,0x10
     a90:	56c78593          	addi	a1,a5,1388 # 0x1056c
     a94:	000107b7          	lui	a5,0x10
     a98:	6fc78513          	addi	a0,a5,1788 # 0x106fc
     a9c:	e50ff0ef          	jal	ra,0xec
     aa0:	fea42623          	sw	a0,-20(s0)
     aa4:	fec42503          	lw	a0,-20(s0)
     aa8:	a5dff0ef          	jal	ra,0x504
     aac:	fea42623          	sw	a0,-20(s0)
     ab0:	06400613          	addi	a2,zero,100
     ab4:	000117b7          	lui	a5,0x11
     ab8:	d3c78593          	addi	a1,a5,-708 # 0x10d3c
     abc:	fec42503          	lw	a0,-20(s0)
     ac0:	c65ff0ef          	jal	ra,0x724
     ac4:	06400593          	addi	a1,zero,100
     ac8:	000117b7          	lui	a5,0x11
     acc:	d3c78513          	addi	a0,a5,-708 # 0x10d3c
     ad0:	cddff0ef          	jal	ra,0x7ac
     ad4:	00050713          	addi	a4,a0,0
     ad8:	000117b7          	lui	a5,0x11
     adc:	1ce7a823          	sw	a4,464(a5) # 0x111d0
     ae0:	06400613          	addi	a2,zero,100
     ae4:	000107b7          	lui	a5,0x10
     ae8:	56c78593          	addi	a1,a5,1388 # 0x1056c
     aec:	000107b7          	lui	a5,0x10
     af0:	6fc78513          	addi	a0,a5,1788 # 0x106fc
     af4:	df8ff0ef          	jal	ra,0xec
     af8:	fea42623          	sw	a0,-20(s0)
     afc:	fec42503          	lw	a0,-20(s0)
     b00:	be5ff0ef          	jal	ra,0x6e4
     b04:	06400613          	addi	a2,zero,100
     b08:	000117b7          	lui	a5,0x11
     b0c:	ecc78593          	addi	a1,a5,-308 # 0x10ecc
     b10:	fec42503          	lw	a0,-20(s0)
     b14:	c11ff0ef          	jal	ra,0x724
     b18:	06400593          	addi	a1,zero,100
     b1c:	000117b7          	lui	a5,0x11
     b20:	ecc78513          	addi	a0,a5,-308 # 0x10ecc
     b24:	c89ff0ef          	jal	ra,0x7ac
     b28:	00050713          	addi	a4,a0,0
     b2c:	000117b7          	lui	a5,0x11
     b30:	1ce7aa23          	sw	a4,468(a5) # 0x111d4
     b34:	06400613          	addi	a2,zero,100
     b38:	000117b7          	lui	a5,0x11
     b3c:	d3c78593          	addi	a1,a5,-708 # 0x10d3c
     b40:	000117b7          	lui	a5,0x11
     b44:	bac78513          	addi	a0,a5,-1108 # 0x10bac
     b48:	cf9ff0ef          	jal	ra,0x840
     b4c:	00050713          	addi	a4,a0,0
     b50:	000117b7          	lui	a5,0x11
     b54:	1ce7ac23          	sw	a4,472(a5) # 0x111d8
     b58:	06400613          	addi	a2,zero,100
     b5c:	000117b7          	lui	a5,0x11
     b60:	ecc78593          	addi	a1,a5,-308 # 0x10ecc
     b64:	000117b7          	lui	a5,0x11
     b68:	bac78513          	addi	a0,a5,-1108 # 0x10bac
     b6c:	cd5ff0ef          	jal	ra,0x840
     b70:	00050713          	addi	a4,a0,0
     b74:	000117b7          	lui	a5,0x11
     b78:	1ce7ae23          	sw	a4,476(a5) # 0x111dc
     b7c:	000117b7          	lui	a5,0x11
     b80:	bac78793          	addi	a5,a5,-1108 # 0x10bac
     b84:	0007a703          	lw	a4,0(a5)
     b88:	000117b7          	lui	a5,0x11
     b8c:	bac78793          	addi	a5,a5,-1108 # 0x10bac
     b90:	18c7a783          	lw	a5,396(a5)
     b94:	00f70733          	add	a4,a4,a5
     b98:	000117b7          	lui	a5,0x11
     b9c:	d3c78793          	addi	a5,a5,-708 # 0x10d3c
     ba0:	0007a783          	lw	a5,0(a5)
     ba4:	00f70733          	add	a4,a4,a5
     ba8:	000117b7          	lui	a5,0x11
     bac:	d3c78793          	addi	a5,a5,-708 # 0x10d3c
     bb0:	18c7a783          	lw	a5,396(a5)
     bb4:	00f70733          	add	a4,a4,a5
     bb8:	000117b7          	lui	a5,0x11
     bbc:	ecc78793          	addi	a5,a5,-308 # 0x10ecc
     bc0:	0007a783          	lw	a5,0(a5)
     bc4:	00f70733          	add	a4,a4,a5
     bc8:	000117b7          	lui	a5,0x11
     bcc:	ecc78793          	addi	a5,a5,-308 # 0x10ecc
     bd0:	18c7a783          	lw	a5,396(a5)
     bd4:	00f70733          	add	a4,a4,a5
     bd8:	000117b7          	lui	a5,0x11
     bdc:	1cc7a783          	lw	a5,460(a5) # 0x111cc
     be0:	00f70733          	add	a4,a4,a5
     be4:	000117b7          	lui	a5,0x11
     be8:	1d07a783          	lw	a5,464(a5) # 0x111d0
     bec:	00f70733          	add	a4,a4,a5
     bf0:	000117b7          	lui	a5,0x11
     bf4:	1d47a783          	lw	a5,468(a5) # 0x111d4
     bf8:	00f70733          	add	a4,a4,a5
     bfc:	000117b7          	lui	a5,0x11
     c00:	1d87a783          	lw	a5,472(a5) # 0x111d8
     c04:	00f70733          	add	a4,a4,a5
     c08:	000117b7          	lui	a5,0x11
     c0c:	1dc7a783          	lw	a5,476(a5) # 0x111dc
     c10:	00f70733          	add	a4,a4,a5
     c14:	000117b7          	lui	a5,0x11
     c18:	1ee7a023          	sw	a4,480(a5) # 0x111e0
     c1c:	00000013          	addi	zero,zero,0
     c20:	01c12083          	lw	ra,28(sp)
     c24:	01812403          	lw	s0,24(sp)
     c28:	02010113          	addi	sp,sp,32
     c2c:	00008067          	jalr	zero,0(ra)
     c30:	000107b7          	lui	a5,0x10
     c34:	5607a783          	lw	a5,1376(a5) # 0x10560
     c38:	08a7ac23          	sw	a0,152(a5)
     c3c:	0807ae23          	sw	zero,156(a5)
     c40:	00008067          	jalr	zero,0(ra)
     c44:	ff010113          	addi	sp,sp,-16
     c48:	000107b7          	lui	a5,0x10
     c4c:	00812423          	sw	s0,8(sp)
     c50:	5607a403          	lw	s0,1376(a5) # 0x10560
     c54:	00112623          	sw	ra,12(sp)
     c58:	000107b7          	lui	a5,0x10
     c5c:	09842503          	lw	a0,152(s0)
     c60:	09c42583          	lw	a1,156(s0)
     c64:	0007a603          	lw	a2,0(a5) # 0x10000
     c68:	0047a683          	lw	a3,4(a5)
     c6c:	351010ef          	jal	ra,0x27bc
     c70:	00150793          	addi	a5,a0,1
     c74:	00a7b533          	sltu	a0,a5,a0
     c78:	00b505b3          	add	a1,a0,a1
     c7c:	08f42c23          	sw	a5,152(s0)
     c80:	08b42e23          	sw	a1,156(s0)
     c84:	00c12083          	lw	ra,12(sp)
     c88:	00812403          	lw	s0,8(sp)
     c8c:	00159513          	slli	a0,a1,0x1
     c90:	00155513          	srli	a0,a0,0x1
     c94:	01010113          	addi	sp,sp,16
     c98:	00008067          	jalr	zero,0(ra)
     c9c:	00000513          	addi	a0,zero,0
     ca0:	00008067          	jalr	zero,0(ra)
     ca4:	00010637          	lui	a2,0x10
     ca8:	000025b7          	lui	a1,0x2
     cac:	00010537          	lui	a0,0x10
     cb0:	14860613          	addi	a2,a2,328 # 0x10148
     cb4:	26c58593          	addi	a1,a1,620 # 0x226c
     cb8:	00850513          	addi	a0,a0,8 # 0x10008
     cbc:	37c0006f          	jal	zero,0x1038
     cc0:	00452583          	lw	a1,4(a0)
     cc4:	ff010113          	addi	sp,sp,-16
     cc8:	000117b7          	lui	a5,0x11
     ccc:	00812423          	sw	s0,8(sp)
     cd0:	00112623          	sw	ra,12(sp)
     cd4:	05c78793          	addi	a5,a5,92 # 0x1105c
     cd8:	00050413          	addi	s0,a0,0
     cdc:	00f58463          	beq	a1,a5,0xce4
     ce0:	58c010ef          	jal	ra,0x226c
     ce4:	00842583          	lw	a1,8(s0)
     ce8:	000117b7          	lui	a5,0x11
     cec:	0c478793          	addi	a5,a5,196 # 0x110c4
     cf0:	00f58663          	beq	a1,a5,0xcfc
     cf4:	00040513          	addi	a0,s0,0
     cf8:	574010ef          	jal	ra,0x226c
     cfc:	00c42583          	lw	a1,12(s0)
     d00:	000117b7          	lui	a5,0x11
     d04:	12c78793          	addi	a5,a5,300 # 0x1112c
     d08:	00f58c63          	beq	a1,a5,0xd20
     d0c:	00040513          	addi	a0,s0,0
     d10:	00812403          	lw	s0,8(sp)
     d14:	00c12083          	lw	ra,12(sp)
     d18:	01010113          	addi	sp,sp,16
     d1c:	5500106f          	jal	zero,0x226c
     d20:	00c12083          	lw	ra,12(sp)
     d24:	00812403          	lw	s0,8(sp)
     d28:	01010113          	addi	sp,sp,16
     d2c:	00008067          	jalr	zero,0(ra)
     d30:	00000513          	addi	a0,zero,0
     d34:	00008067          	jalr	zero,0(ra)
     d38:	fe010113          	addi	sp,sp,-32
     d3c:	000017b7          	lui	a5,0x1
     d40:	00812c23          	sw	s0,24(sp)
     d44:	00011737          	lui	a4,0x11
     d48:	ca478793          	addi	a5,a5,-860 # 0xca4
     d4c:	00011437          	lui	s0,0x11
     d50:	00011537          	lui	a0,0x11
     d54:	05c40413          	addi	s0,s0,92 # 0x1105c
     d58:	00112e23          	sw	ra,28(sp)
     d5c:	00912a23          	sw	s1,20(sp)
     d60:	01212823          	sw	s2,16(sp)
     d64:	01312623          	sw	s3,12(sp)
     d68:	01412423          	sw	s4,8(sp)
     d6c:	1ef72223          	sw	a5,484(a4) # 0x111e4
     d70:	00800613          	addi	a2,zero,8
     d74:	00400793          	addi	a5,zero,4
     d78:	00000593          	addi	a1,zero,0
     d7c:	0b850513          	addi	a0,a0,184 # 0x110b8
     d80:	00f42623          	sw	a5,12(s0)
     d84:	00042023          	sw	zero,0(s0)
     d88:	00042223          	sw	zero,4(s0)
     d8c:	00042423          	sw	zero,8(s0)
     d90:	06042223          	sw	zero,100(s0)
     d94:	00042823          	sw	zero,16(s0)
     d98:	00042a23          	sw	zero,20(s0)
     d9c:	00042c23          	sw	zero,24(s0)
     da0:	730000ef          	jal	ra,0x14d0
     da4:	00001a37          	lui	s4,0x1
     da8:	000019b7          	lui	s3,0x1
     dac:	00001937          	lui	s2,0x1
     db0:	000014b7          	lui	s1,0x1
     db4:	00011537          	lui	a0,0x11
     db8:	000107b7          	lui	a5,0x10
     dbc:	0eca0a13          	addi	s4,s4,236 # 0x10ec
     dc0:	15098993          	addi	s3,s3,336 # 0x1150
     dc4:	1d890913          	addi	s2,s2,472 # 0x11d8
     dc8:	23c48493          	addi	s1,s1,572 # 0x123c
     dcc:	00978793          	addi	a5,a5,9 # 0x10009
     dd0:	00800613          	addi	a2,zero,8
     dd4:	00000593          	addi	a1,zero,0
     dd8:	12050513          	addi	a0,a0,288 # 0x11120
     ddc:	06f42a23          	sw	a5,116(s0)
     de0:	03442023          	sw	s4,32(s0)
     de4:	03342223          	sw	s3,36(s0)
     de8:	03242423          	sw	s2,40(s0)
     dec:	02942623          	sw	s1,44(s0)
     df0:	00842e23          	sw	s0,28(s0)
     df4:	06042423          	sw	zero,104(s0)
     df8:	06042623          	sw	zero,108(s0)
     dfc:	06042823          	sw	zero,112(s0)
     e00:	0c042623          	sw	zero,204(s0)
     e04:	06042c23          	sw	zero,120(s0)
     e08:	06042e23          	sw	zero,124(s0)
     e0c:	08042023          	sw	zero,128(s0)
     e10:	6c0000ef          	jal	ra,0x14d0
     e14:	00011737          	lui	a4,0x11
     e18:	00011537          	lui	a0,0x11
     e1c:	000207b7          	lui	a5,0x20
     e20:	01278793          	addi	a5,a5,18 # 0x20012
     e24:	0c470713          	addi	a4,a4,196 # 0x110c4
     e28:	18850513          	addi	a0,a0,392 # 0x11188
     e2c:	00800613          	addi	a2,zero,8
     e30:	00000593          	addi	a1,zero,0
     e34:	09442423          	sw	s4,136(s0)
     e38:	09342623          	sw	s3,140(s0)
     e3c:	09242823          	sw	s2,144(s0)
     e40:	08942a23          	sw	s1,148(s0)
     e44:	0cf42e23          	sw	a5,220(s0)
     e48:	0c042823          	sw	zero,208(s0)
     e4c:	0c042a23          	sw	zero,212(s0)
     e50:	0c042c23          	sw	zero,216(s0)
     e54:	12042a23          	sw	zero,308(s0)
     e58:	0e042023          	sw	zero,224(s0)
     e5c:	0e042223          	sw	zero,228(s0)
     e60:	0e042423          	sw	zero,232(s0)
     e64:	08e42223          	sw	a4,132(s0)
     e68:	668000ef          	jal	ra,0x14d0
     e6c:	000117b7          	lui	a5,0x11
     e70:	12c78793          	addi	a5,a5,300 # 0x1112c
     e74:	0f442823          	sw	s4,240(s0)
     e78:	0f342a23          	sw	s3,244(s0)
     e7c:	0f242c23          	sw	s2,248(s0)
     e80:	0e942e23          	sw	s1,252(s0)
     e84:	01c12083          	lw	ra,28(sp)
     e88:	0ef42623          	sw	a5,236(s0)
     e8c:	01812403          	lw	s0,24(sp)
     e90:	01412483          	lw	s1,20(sp)
     e94:	01012903          	lw	s2,16(sp)
     e98:	00c12983          	lw	s3,12(sp)
     e9c:	00812a03          	lw	s4,8(sp)
     ea0:	02010113          	addi	sp,sp,32
     ea4:	00008067          	jalr	zero,0(ra)
     ea8:	000117b7          	lui	a5,0x11
     eac:	1e47a783          	lw	a5,484(a5) # 0x111e4
     eb0:	fe010113          	addi	sp,sp,-32
     eb4:	00912a23          	sw	s1,20(sp)
     eb8:	00112e23          	sw	ra,28(sp)
     ebc:	00812c23          	sw	s0,24(sp)
     ec0:	00050493          	addi	s1,a0,0
     ec4:	0e078e63          	beq	a5,zero,0xfc0
     ec8:	00010837          	lui	a6,0x10
     ecc:	14880813          	addi	a6,a6,328 # 0x10148
     ed0:	fff00693          	addi	a3,zero,-1
     ed4:	00482783          	lw	a5,4(a6)
     ed8:	fff78793          	addi	a5,a5,-1
     edc:	0807c063          	blt	a5,zero,0xf5c
     ee0:	00882403          	lw	s0,8(a6)
     ee4:	00c0006f          	jal	zero,0xef0
     ee8:	06840413          	addi	s0,s0,104
     eec:	06d78863          	beq	a5,a3,0xf5c
     ef0:	00c41703          	lh	a4,12(s0)
     ef4:	fff78793          	addi	a5,a5,-1
     ef8:	fe0718e3          	bne	a4,zero,0xee8
     efc:	ffff07b7          	lui	a5,0xffff0
     f00:	00178793          	addi	a5,a5,1 # 0xffff0001
     f04:	00f42623          	sw	a5,12(s0)
     f08:	06042223          	sw	zero,100(s0)
     f0c:	00042023          	sw	zero,0(s0)
     f10:	00042423          	sw	zero,8(s0)
     f14:	00042223          	sw	zero,4(s0)
     f18:	00042823          	sw	zero,16(s0)
     f1c:	00042a23          	sw	zero,20(s0)
     f20:	00042c23          	sw	zero,24(s0)
     f24:	00800613          	addi	a2,zero,8
     f28:	00000593          	addi	a1,zero,0
     f2c:	05c40513          	addi	a0,s0,92
     f30:	5a0000ef          	jal	ra,0x14d0
     f34:	02042823          	sw	zero,48(s0)
     f38:	02042a23          	sw	zero,52(s0)
     f3c:	04042223          	sw	zero,68(s0)
     f40:	04042423          	sw	zero,72(s0)
     f44:	01c12083          	lw	ra,28(sp)
     f48:	00040513          	addi	a0,s0,0
     f4c:	01812403          	lw	s0,24(sp)
     f50:	01412483          	lw	s1,20(sp)
     f54:	02010113          	addi	sp,sp,32
     f58:	00008067          	jalr	zero,0(ra)
     f5c:	00082403          	lw	s0,0(a6)
     f60:	00040663          	beq	s0,zero,0xf6c
     f64:	00040813          	addi	a6,s0,0
     f68:	f6dff06f          	jal	zero,0xed4
     f6c:	1ac00593          	addi	a1,zero,428
     f70:	00048513          	addi	a0,s1,0
     f74:	01012623          	sw	a6,12(sp)
     f78:	255000ef          	jal	ra,0x19cc
     f7c:	00c12803          	lw	a6,12(sp)
     f80:	00050413          	addi	s0,a0,0
     f84:	04050263          	beq	a0,zero,0xfc8
     f88:	00400793          	addi	a5,zero,4
     f8c:	00f52223          	sw	a5,4(a0)
     f90:	00c50513          	addi	a0,a0,12
     f94:	00042023          	sw	zero,0(s0)
     f98:	00a42423          	sw	a0,8(s0)
     f9c:	1a000613          	addi	a2,zero,416
     fa0:	00000593          	addi	a1,zero,0
     fa4:	01012623          	sw	a6,12(sp)
     fa8:	528000ef          	jal	ra,0x14d0
     fac:	00c12803          	lw	a6,12(sp)
     fb0:	fff00693          	addi	a3,zero,-1
     fb4:	00882023          	sw	s0,0(a6)
     fb8:	00040813          	addi	a6,s0,0
     fbc:	f19ff06f          	jal	zero,0xed4
     fc0:	d79ff0ef          	jal	ra,0xd38
     fc4:	f05ff06f          	jal	zero,0xec8
     fc8:	00082023          	sw	zero,0(a6)
     fcc:	00c00793          	addi	a5,zero,12
     fd0:	00f4a023          	sw	a5,0(s1)
     fd4:	f71ff06f          	jal	zero,0xf44
     fd8:	03452783          	lw	a5,52(a0)
     fdc:	00078463          	beq	a5,zero,0xfe4
     fe0:	00008067          	jalr	zero,0(ra)
     fe4:	00011737          	lui	a4,0x11
     fe8:	000017b7          	lui	a5,0x1
     fec:	1e472703          	lw	a4,484(a4) # 0x111e4
     ff0:	cc078793          	addi	a5,a5,-832 # 0xcc0
     ff4:	02f52a23          	sw	a5,52(a0)
     ff8:	fe0714e3          	bne	a4,zero,0xfe0
     ffc:	d3dff06f          	jal	zero,0xd38
    1000:	00008067          	jalr	zero,0(ra)
    1004:	00008067          	jalr	zero,0(ra)
    1008:	00010637          	lui	a2,0x10
    100c:	000015b7          	lui	a1,0x1
    1010:	14860613          	addi	a2,a2,328 # 0x10148
    1014:	c9c58593          	addi	a1,a1,-868 # 0xc9c
    1018:	00000513          	addi	a0,zero,0
    101c:	01c0006f          	jal	zero,0x1038
    1020:	00010637          	lui	a2,0x10
    1024:	000015b7          	lui	a1,0x1
    1028:	14860613          	addi	a2,a2,328 # 0x10148
    102c:	d3058593          	addi	a1,a1,-720 # 0xd30
    1030:	00000513          	addi	a0,zero,0
    1034:	0040006f          	jal	zero,0x1038
    1038:	fd010113          	addi	sp,sp,-48
    103c:	03212023          	sw	s2,32(sp)
    1040:	01312e23          	sw	s3,28(sp)
    1044:	01412c23          	sw	s4,24(sp)
    1048:	01512a23          	sw	s5,20(sp)
    104c:	01612823          	sw	s6,16(sp)
    1050:	01712623          	sw	s7,12(sp)
    1054:	02112623          	sw	ra,44(sp)
    1058:	02812423          	sw	s0,40(sp)
    105c:	02912223          	sw	s1,36(sp)
    1060:	00060a93          	addi	s5,a2,0
    1064:	00050b13          	addi	s6,a0,0
    1068:	00058b93          	addi	s7,a1,0
    106c:	00000a13          	addi	s4,zero,0
    1070:	00100993          	addi	s3,zero,1
    1074:	fff00913          	addi	s2,zero,-1
    1078:	004aa483          	lw	s1,4(s5)
    107c:	fff48493          	addi	s1,s1,-1
    1080:	0204ca63          	blt	s1,zero,0x10b4
    1084:	008aa403          	lw	s0,8(s5)
    1088:	00c45783          	lhu	a5,12(s0)
    108c:	00f9fe63          	bgeu	s3,a5,0x10a8
    1090:	00e41783          	lh	a5,14(s0)
    1094:	00040593          	addi	a1,s0,0
    1098:	000b0513          	addi	a0,s6,0
    109c:	01278663          	beq	a5,s2,0x10a8
    10a0:	000b80e7          	jalr	ra,0(s7)
    10a4:	00aa6a33          	or	s4,s4,a0
    10a8:	fff48493          	addi	s1,s1,-1
    10ac:	06840413          	addi	s0,s0,104
    10b0:	fd249ce3          	bne	s1,s2,0x1088
    10b4:	000aaa83          	lw	s5,0(s5)
    10b8:	fc0a90e3          	bne	s5,zero,0x1078
    10bc:	02c12083          	lw	ra,44(sp)
    10c0:	02812403          	lw	s0,40(sp)
    10c4:	02412483          	lw	s1,36(sp)
    10c8:	02012903          	lw	s2,32(sp)
    10cc:	01c12983          	lw	s3,28(sp)
    10d0:	01412a83          	lw	s5,20(sp)
    10d4:	01012b03          	lw	s6,16(sp)
    10d8:	00c12b83          	lw	s7,12(sp)
    10dc:	000a0513          	addi	a0,s4,0
    10e0:	01812a03          	lw	s4,24(sp)
    10e4:	03010113          	addi	sp,sp,48
    10e8:	00008067          	jalr	zero,0(ra)
    10ec:	ff010113          	addi	sp,sp,-16
    10f0:	00812423          	sw	s0,8(sp)
    10f4:	00058413          	addi	s0,a1,0
    10f8:	00e59583          	lh	a1,14(a1)
    10fc:	00112623          	sw	ra,12(sp)
    1100:	2f8000ef          	jal	ra,0x13f8
    1104:	02054063          	blt	a0,zero,0x1124
    1108:	05042783          	lw	a5,80(s0)
    110c:	00c12083          	lw	ra,12(sp)
    1110:	00a787b3          	add	a5,a5,a0
    1114:	04f42823          	sw	a5,80(s0)
    1118:	00812403          	lw	s0,8(sp)
    111c:	01010113          	addi	sp,sp,16
    1120:	00008067          	jalr	zero,0(ra)
    1124:	00c45783          	lhu	a5,12(s0)
    1128:	fffff737          	lui	a4,0xfffff
    112c:	fff70713          	addi	a4,a4,-1 # 0xffffefff
    1130:	00e7f7b3          	and	a5,a5,a4
    1134:	00c12083          	lw	ra,12(sp)
    1138:	00f41623          	sh	a5,12(s0)
    113c:	00812403          	lw	s0,8(sp)
    1140:	01010113          	addi	sp,sp,16
    1144:	00008067          	jalr	zero,0(ra)
    1148:	00000513          	addi	a0,zero,0
    114c:	00008067          	jalr	zero,0(ra)
    1150:	00c59783          	lh	a5,12(a1)
    1154:	fe010113          	addi	sp,sp,-32
    1158:	00068313          	addi	t1,a3,0
    115c:	00112e23          	sw	ra,28(sp)
    1160:	1007f693          	andi	a3,a5,256
    1164:	00058713          	addi	a4,a1,0
    1168:	00060893          	addi	a7,a2,0
    116c:	00050813          	addi	a6,a0,0
    1170:	02069863          	bne	a3,zero,0x11a0
    1174:	fffff6b7          	lui	a3,0xfffff
    1178:	fff68693          	addi	a3,a3,-1 # 0xffffefff
    117c:	01c12083          	lw	ra,28(sp)
    1180:	00d7f7b3          	and	a5,a5,a3
    1184:	00e71583          	lh	a1,14(a4)
    1188:	00f71623          	sh	a5,12(a4)
    118c:	00030693          	addi	a3,t1,0
    1190:	00088613          	addi	a2,a7,0
    1194:	00080513          	addi	a0,a6,0
    1198:	02010113          	addi	sp,sp,32
    119c:	2c80006f          	jal	zero,0x1464
    11a0:	00e59583          	lh	a1,14(a1)
    11a4:	00c12423          	sw	a2,8(sp)
    11a8:	00200693          	addi	a3,zero,2
    11ac:	00000613          	addi	a2,zero,0
    11b0:	00612623          	sw	t1,12(sp)
    11b4:	00e12023          	sw	a4,0(sp)
    11b8:	00a12223          	sw	a0,4(sp)
    11bc:	1d0000ef          	jal	ra,0x138c
    11c0:	00012703          	lw	a4,0(sp)
    11c4:	00c12303          	lw	t1,12(sp)
    11c8:	00812883          	lw	a7,8(sp)
    11cc:	00c71783          	lh	a5,12(a4)
    11d0:	00412803          	lw	a6,4(sp)
    11d4:	fa1ff06f          	jal	zero,0x1174
    11d8:	ff010113          	addi	sp,sp,-16
    11dc:	00812423          	sw	s0,8(sp)
    11e0:	00058413          	addi	s0,a1,0
    11e4:	00e59583          	lh	a1,14(a1)
    11e8:	00112623          	sw	ra,12(sp)
    11ec:	1a0000ef          	jal	ra,0x138c
    11f0:	fff00713          	addi	a4,zero,-1
    11f4:	00c41783          	lh	a5,12(s0)
    11f8:	02e50263          	beq	a0,a4,0x121c
    11fc:	00001737          	lui	a4,0x1
    1200:	00e7e7b3          	or	a5,a5,a4
    1204:	00c12083          	lw	ra,12(sp)
    1208:	04a42823          	sw	a0,80(s0)
    120c:	00f41623          	sh	a5,12(s0)
    1210:	00812403          	lw	s0,8(sp)
    1214:	01010113          	addi	sp,sp,16
    1218:	00008067          	jalr	zero,0(ra)
    121c:	80050713          	addi	a4,a0,-2048
    1220:	80070713          	addi	a4,a4,-2048 # 0x800
    1224:	00e7f7b3          	and	a5,a5,a4
    1228:	00c12083          	lw	ra,12(sp)
    122c:	00f41623          	sh	a5,12(s0)
    1230:	00812403          	lw	s0,8(sp)
    1234:	01010113          	addi	sp,sp,16
    1238:	00008067          	jalr	zero,0(ra)
    123c:	00e59583          	lh	a1,14(a1)
    1240:	0040006f          	jal	zero,0x1244
    1244:	ff010113          	addi	sp,sp,-16
    1248:	00812423          	sw	s0,8(sp)
    124c:	00912223          	sw	s1,4(sp)
    1250:	00011437          	lui	s0,0x11
    1254:	00050493          	addi	s1,a0,0
    1258:	00058513          	addi	a0,a1,0
    125c:	00112623          	sw	ra,12(sp)
    1260:	1e042423          	sw	zero,488(s0) # 0x111e8
    1264:	4d4010ef          	jal	ra,0x2738
    1268:	fff00793          	addi	a5,zero,-1
    126c:	00f50c63          	beq	a0,a5,0x1284
    1270:	00c12083          	lw	ra,12(sp)
    1274:	00812403          	lw	s0,8(sp)
    1278:	00412483          	lw	s1,4(sp)
    127c:	01010113          	addi	sp,sp,16
    1280:	00008067          	jalr	zero,0(ra)
    1284:	1e842783          	lw	a5,488(s0)
    1288:	fe0784e3          	beq	a5,zero,0x1270
    128c:	00c12083          	lw	ra,12(sp)
    1290:	00812403          	lw	s0,8(sp)
    1294:	00f4a023          	sw	a5,0(s1)
    1298:	00412483          	lw	s1,4(sp)
    129c:	01010113          	addi	sp,sp,16
    12a0:	00008067          	jalr	zero,0(ra)
    12a4:	000107b7          	lui	a5,0x10
    12a8:	5607a783          	lw	a5,1376(a5) # 0x10560
    12ac:	0ca78e63          	beq	a5,a0,0x1388
    12b0:	04452583          	lw	a1,68(a0)
    12b4:	fe010113          	addi	sp,sp,-32
    12b8:	00912a23          	sw	s1,20(sp)
    12bc:	00112e23          	sw	ra,28(sp)
    12c0:	00812c23          	sw	s0,24(sp)
    12c4:	00050493          	addi	s1,a0,0
    12c8:	04058863          	beq	a1,zero,0x1318
    12cc:	01212823          	sw	s2,16(sp)
    12d0:	01312623          	sw	s3,12(sp)
    12d4:	00000913          	addi	s2,zero,0
    12d8:	08000993          	addi	s3,zero,128
    12dc:	012587b3          	add	a5,a1,s2
    12e0:	0007a403          	lw	s0,0(a5)
    12e4:	00040e63          	beq	s0,zero,0x1300
    12e8:	00040593          	addi	a1,s0,0
    12ec:	00042403          	lw	s0,0(s0)
    12f0:	00048513          	addi	a0,s1,0
    12f4:	3e8000ef          	jal	ra,0x16dc
    12f8:	fe0418e3          	bne	s0,zero,0x12e8
    12fc:	0444a583          	lw	a1,68(s1)
    1300:	00490913          	addi	s2,s2,4
    1304:	fd391ce3          	bne	s2,s3,0x12dc
    1308:	00048513          	addi	a0,s1,0
    130c:	3d0000ef          	jal	ra,0x16dc
    1310:	01012903          	lw	s2,16(sp)
    1314:	00c12983          	lw	s3,12(sp)
    1318:	0384a583          	lw	a1,56(s1)
    131c:	00058663          	beq	a1,zero,0x1328
    1320:	00048513          	addi	a0,s1,0
    1324:	3b8000ef          	jal	ra,0x16dc
    1328:	0404a403          	lw	s0,64(s1)
    132c:	00040c63          	beq	s0,zero,0x1344
    1330:	00040593          	addi	a1,s0,0
    1334:	00042403          	lw	s0,0(s0)
    1338:	00048513          	addi	a0,s1,0
    133c:	3a0000ef          	jal	ra,0x16dc
    1340:	fe0418e3          	bne	s0,zero,0x1330
    1344:	04c4a583          	lw	a1,76(s1)
    1348:	00058663          	beq	a1,zero,0x1354
    134c:	00048513          	addi	a0,s1,0
    1350:	38c000ef          	jal	ra,0x16dc
    1354:	0344a783          	lw	a5,52(s1)
    1358:	00078e63          	beq	a5,zero,0x1374
    135c:	01812403          	lw	s0,24(sp)
    1360:	01c12083          	lw	ra,28(sp)
    1364:	00048513          	addi	a0,s1,0
    1368:	01412483          	lw	s1,20(sp)
    136c:	02010113          	addi	sp,sp,32
    1370:	00078067          	jalr	zero,0(a5)
    1374:	01c12083          	lw	ra,28(sp)
    1378:	01812403          	lw	s0,24(sp)
    137c:	01412483          	lw	s1,20(sp)
    1380:	02010113          	addi	sp,sp,32
    1384:	00008067          	jalr	zero,0(ra)
    1388:	00008067          	jalr	zero,0(ra)
    138c:	ff010113          	addi	sp,sp,-16
    1390:	00058793          	addi	a5,a1,0
    1394:	00812423          	sw	s0,8(sp)
    1398:	00912223          	sw	s1,4(sp)
    139c:	00060593          	addi	a1,a2,0
    13a0:	00050493          	addi	s1,a0,0
    13a4:	00068613          	addi	a2,a3,0
    13a8:	00078513          	addi	a0,a5,0
    13ac:	00011437          	lui	s0,0x11
    13b0:	00112623          	sw	ra,12(sp)
    13b4:	1e042423          	sw	zero,488(s0) # 0x111e8
    13b8:	394010ef          	jal	ra,0x274c
    13bc:	fff00793          	addi	a5,zero,-1
    13c0:	00f50c63          	beq	a0,a5,0x13d8
    13c4:	00c12083          	lw	ra,12(sp)
    13c8:	00812403          	lw	s0,8(sp)
    13cc:	00412483          	lw	s1,4(sp)
    13d0:	01010113          	addi	sp,sp,16
    13d4:	00008067          	jalr	zero,0(ra)
    13d8:	1e842783          	lw	a5,488(s0)
    13dc:	fe0784e3          	beq	a5,zero,0x13c4
    13e0:	00c12083          	lw	ra,12(sp)
    13e4:	00812403          	lw	s0,8(sp)
    13e8:	00f4a023          	sw	a5,0(s1)
    13ec:	00412483          	lw	s1,4(sp)
    13f0:	01010113          	addi	sp,sp,16
    13f4:	00008067          	jalr	zero,0(ra)
    13f8:	ff010113          	addi	sp,sp,-16
    13fc:	00058793          	addi	a5,a1,0
    1400:	00812423          	sw	s0,8(sp)
    1404:	00912223          	sw	s1,4(sp)
    1408:	00060593          	addi	a1,a2,0
    140c:	00050493          	addi	s1,a0,0
    1410:	00068613          	addi	a2,a3,0
    1414:	00078513          	addi	a0,a5,0
    1418:	00011437          	lui	s0,0x11
    141c:	00112623          	sw	ra,12(sp)
    1420:	1e042423          	sw	zero,488(s0) # 0x111e8
    1424:	33c010ef          	jal	ra,0x2760
    1428:	fff00793          	addi	a5,zero,-1
    142c:	00f50c63          	beq	a0,a5,0x1444
    1430:	00c12083          	lw	ra,12(sp)
    1434:	00812403          	lw	s0,8(sp)
    1438:	00412483          	lw	s1,4(sp)
    143c:	01010113          	addi	sp,sp,16
    1440:	00008067          	jalr	zero,0(ra)
    1444:	1e842783          	lw	a5,488(s0)
    1448:	fe0784e3          	beq	a5,zero,0x1430
    144c:	00c12083          	lw	ra,12(sp)
    1450:	00812403          	lw	s0,8(sp)
    1454:	00f4a023          	sw	a5,0(s1)
    1458:	00412483          	lw	s1,4(sp)
    145c:	01010113          	addi	sp,sp,16
    1460:	00008067          	jalr	zero,0(ra)
    1464:	ff010113          	addi	sp,sp,-16
    1468:	00058793          	addi	a5,a1,0
    146c:	00812423          	sw	s0,8(sp)
    1470:	00912223          	sw	s1,4(sp)
    1474:	00060593          	addi	a1,a2,0
    1478:	00050493          	addi	s1,a0,0
    147c:	00068613          	addi	a2,a3,0
    1480:	00078513          	addi	a0,a5,0
    1484:	00011437          	lui	s0,0x11
    1488:	00112623          	sw	ra,12(sp)
    148c:	1e042423          	sw	zero,488(s0) # 0x111e8
    1490:	318010ef          	jal	ra,0x27a8
    1494:	fff00793          	addi	a5,zero,-1
    1498:	00f50c63          	beq	a0,a5,0x14b0
    149c:	00c12083          	lw	ra,12(sp)
    14a0:	00812403          	lw	s0,8(sp)
    14a4:	00412483          	lw	s1,4(sp)
    14a8:	01010113          	addi	sp,sp,16
    14ac:	00008067          	jalr	zero,0(ra)
    14b0:	1e842783          	lw	a5,488(s0)
    14b4:	fe0784e3          	beq	a5,zero,0x149c
    14b8:	00c12083          	lw	ra,12(sp)
    14bc:	00812403          	lw	s0,8(sp)
    14c0:	00f4a023          	sw	a5,0(s1)
    14c4:	00412483          	lw	s1,4(sp)
    14c8:	01010113          	addi	sp,sp,16
    14cc:	00008067          	jalr	zero,0(ra)
    14d0:	00f00313          	addi	t1,zero,15
    14d4:	00050713          	addi	a4,a0,0
    14d8:	02c37e63          	bgeu	t1,a2,0x1514
    14dc:	00f77793          	andi	a5,a4,15
    14e0:	0a079063          	bne	a5,zero,0x1580
    14e4:	08059263          	bne	a1,zero,0x1568
    14e8:	ff067693          	andi	a3,a2,-16
    14ec:	00f67613          	andi	a2,a2,15
    14f0:	00e686b3          	add	a3,a3,a4
    14f4:	00b72023          	sw	a1,0(a4)
    14f8:	00b72223          	sw	a1,4(a4)
    14fc:	00b72423          	sw	a1,8(a4)
    1500:	00b72623          	sw	a1,12(a4)
    1504:	01070713          	addi	a4,a4,16
    1508:	fed766e3          	bltu	a4,a3,0x14f4
    150c:	00061463          	bne	a2,zero,0x1514
    1510:	00008067          	jalr	zero,0(ra)
    1514:	40c306b3          	sub	a3,t1,a2
    1518:	00269693          	slli	a3,a3,0x2
    151c:	00000297          	auipc	t0,0x0
    1520:	005686b3          	add	a3,a3,t0
    1524:	00c68067          	jalr	zero,12(a3)
    1528:	00b70723          	sb	a1,14(a4)
    152c:	00b706a3          	sb	a1,13(a4)
    1530:	00b70623          	sb	a1,12(a4)
    1534:	00b705a3          	sb	a1,11(a4)
    1538:	00b70523          	sb	a1,10(a4)
    153c:	00b704a3          	sb	a1,9(a4)
    1540:	00b70423          	sb	a1,8(a4)
    1544:	00b703a3          	sb	a1,7(a4)
    1548:	00b70323          	sb	a1,6(a4)
    154c:	00b702a3          	sb	a1,5(a4)
    1550:	00b70223          	sb	a1,4(a4)
    1554:	00b701a3          	sb	a1,3(a4)
    1558:	00b70123          	sb	a1,2(a4)
    155c:	00b700a3          	sb	a1,1(a4)
    1560:	00b70023          	sb	a1,0(a4)
    1564:	00008067          	jalr	zero,0(ra)
    1568:	0ff5f593          	andi	a1,a1,255
    156c:	00859693          	slli	a3,a1,0x8
    1570:	00d5e5b3          	or	a1,a1,a3
    1574:	01059693          	slli	a3,a1,0x10
    1578:	00d5e5b3          	or	a1,a1,a3
    157c:	f6dff06f          	jal	zero,0x14e8
    1580:	00279693          	slli	a3,a5,0x2
    1584:	00000297          	auipc	t0,0x0
    1588:	005686b3          	add	a3,a3,t0
    158c:	00008293          	addi	t0,ra,0
    1590:	fa0680e7          	jalr	ra,-96(a3)
    1594:	00028093          	addi	ra,t0,0 # 0x1584
    1598:	ff078793          	addi	a5,a5,-16
    159c:	40f70733          	sub	a4,a4,a5
    15a0:	00f60633          	add	a2,a2,a5
    15a4:	f6c378e3          	bgeu	t1,a2,0x1514
    15a8:	f3dff06f          	jal	zero,0x14e4
    15ac:	fe010113          	addi	sp,sp,-32
    15b0:	01212823          	sw	s2,16(sp)
    15b4:	00010937          	lui	s2,0x10
    15b8:	00812c23          	sw	s0,24(sp)
    15bc:	00912a23          	sw	s1,20(sp)
    15c0:	01312623          	sw	s3,12(sp)
    15c4:	00058413          	addi	s0,a1,0
    15c8:	00112e23          	sw	ra,28(sp)
    15cc:	00050993          	addi	s3,a0,0
    15d0:	15490913          	addi	s2,s2,340 # 0x10154
    15d4:	491000ef          	jal	ra,0x2264
    15d8:	00892783          	lw	a5,8(s2)
    15dc:	00001737          	lui	a4,0x1
    15e0:	0047a483          	lw	s1,4(a5)
    15e4:	ffc4f493          	andi	s1,s1,-4
    15e8:	7ff48793          	addi	a5,s1,2047
    15ec:	7f078793          	addi	a5,a5,2032
    15f0:	40878433          	sub	s0,a5,s0
    15f4:	00c45413          	srli	s0,s0,0xc
    15f8:	fff40413          	addi	s0,s0,-1
    15fc:	00c41413          	slli	s0,s0,0xc
    1600:	00e44e63          	blt	s0,a4,0x161c
    1604:	00000593          	addi	a1,zero,0
    1608:	00098513          	addi	a0,s3,0
    160c:	0cc010ef          	jal	ra,0x26d8
    1610:	00892783          	lw	a5,8(s2)
    1614:	009787b3          	add	a5,a5,s1
    1618:	02f50663          	beq	a0,a5,0x1644
    161c:	00098513          	addi	a0,s3,0
    1620:	449000ef          	jal	ra,0x2268
    1624:	01c12083          	lw	ra,28(sp)
    1628:	01812403          	lw	s0,24(sp)
    162c:	01412483          	lw	s1,20(sp)
    1630:	01012903          	lw	s2,16(sp)
    1634:	00c12983          	lw	s3,12(sp)
    1638:	00000513          	addi	a0,zero,0
    163c:	02010113          	addi	sp,sp,32
    1640:	00008067          	jalr	zero,0(ra)
    1644:	408005b3          	sub	a1,zero,s0
    1648:	00098513          	addi	a0,s3,0
    164c:	08c010ef          	jal	ra,0x26d8
    1650:	fff00793          	addi	a5,zero,-1
    1654:	04f50663          	beq	a0,a5,0x16a0
    1658:	00011737          	lui	a4,0x11
    165c:	00892683          	lw	a3,8(s2)
    1660:	19472783          	lw	a5,404(a4) # 0x11194
    1664:	408484b3          	sub	s1,s1,s0
    1668:	0014e493          	ori	s1,s1,1
    166c:	00098513          	addi	a0,s3,0
    1670:	408787b3          	sub	a5,a5,s0
    1674:	0096a223          	sw	s1,4(a3)
    1678:	18f72a23          	sw	a5,404(a4)
    167c:	3ed000ef          	jal	ra,0x2268
    1680:	01c12083          	lw	ra,28(sp)
    1684:	01812403          	lw	s0,24(sp)
    1688:	01412483          	lw	s1,20(sp)
    168c:	01012903          	lw	s2,16(sp)
    1690:	00c12983          	lw	s3,12(sp)
    1694:	00100513          	addi	a0,zero,1
    1698:	02010113          	addi	sp,sp,32
    169c:	00008067          	jalr	zero,0(ra)
    16a0:	00000593          	addi	a1,zero,0
    16a4:	00098513          	addi	a0,s3,0
    16a8:	030010ef          	jal	ra,0x26d8
    16ac:	00892703          	lw	a4,8(s2)
    16b0:	00f00693          	addi	a3,zero,15
    16b4:	40e507b3          	sub	a5,a0,a4
    16b8:	f6f6d2e3          	bge	a3,a5,0x161c
    16bc:	000106b7          	lui	a3,0x10
    16c0:	5646a603          	lw	a2,1380(a3) # 0x10564
    16c4:	0017e793          	ori	a5,a5,1
    16c8:	000116b7          	lui	a3,0x11
    16cc:	40c50533          	sub	a0,a0,a2
    16d0:	00f72223          	sw	a5,4(a4)
    16d4:	18a6aa23          	sw	a0,404(a3) # 0x11194
    16d8:	f45ff06f          	jal	zero,0x161c
    16dc:	12058463          	beq	a1,zero,0x1804
    16e0:	fe010113          	addi	sp,sp,-32
    16e4:	00812c23          	sw	s0,24(sp)
    16e8:	00b12623          	sw	a1,12(sp)
    16ec:	00050413          	addi	s0,a0,0
    16f0:	00112e23          	sw	ra,28(sp)
    16f4:	371000ef          	jal	ra,0x2264
    16f8:	00c12583          	lw	a1,12(sp)
    16fc:	00010837          	lui	a6,0x10
    1700:	15480813          	addi	a6,a6,340 # 0x10154
    1704:	ffc5a503          	lw	a0,-4(a1)
    1708:	ff858713          	addi	a4,a1,-8
    170c:	00882883          	lw	a7,8(a6)
    1710:	ffe57793          	andi	a5,a0,-2
    1714:	00f70633          	add	a2,a4,a5
    1718:	00462683          	lw	a3,4(a2)
    171c:	00157313          	andi	t1,a0,1
    1720:	ffc6f693          	andi	a3,a3,-4
    1724:	18c88863          	beq	a7,a2,0x18b4
    1728:	00d62223          	sw	a3,4(a2)
    172c:	00d608b3          	add	a7,a2,a3
    1730:	0048a883          	lw	a7,4(a7)
    1734:	0018f893          	andi	a7,a7,1
    1738:	08031a63          	bne	t1,zero,0x17cc
    173c:	ff85a303          	lw	t1,-8(a1)
    1740:	000105b7          	lui	a1,0x10
    1744:	15c58593          	addi	a1,a1,348 # 0x1015c
    1748:	40670733          	sub	a4,a4,t1
    174c:	00872503          	lw	a0,8(a4)
    1750:	006787b3          	add	a5,a5,t1
    1754:	12b50a63          	beq	a0,a1,0x1888
    1758:	00c72303          	lw	t1,12(a4)
    175c:	00652623          	sw	t1,12(a0)
    1760:	00a32423          	sw	a0,8(t1)
    1764:	1a088063          	beq	a7,zero,0x1904
    1768:	0017e693          	ori	a3,a5,1
    176c:	00d72223          	sw	a3,4(a4)
    1770:	00f62023          	sw	a5,0(a2)
    1774:	1ff00693          	addi	a3,zero,511
    1778:	0af6e263          	bltu	a3,a5,0x181c
    177c:	ff87f693          	andi	a3,a5,-8
    1780:	00868693          	addi	a3,a3,8
    1784:	00482583          	lw	a1,4(a6)
    1788:	00d806b3          	add	a3,a6,a3
    178c:	0006a603          	lw	a2,0(a3)
    1790:	0057d513          	srli	a0,a5,0x5
    1794:	00100793          	addi	a5,zero,1
    1798:	00a797b3          	sll	a5,a5,a0
    179c:	00b7e7b3          	or	a5,a5,a1
    17a0:	ff868593          	addi	a1,a3,-8
    17a4:	00c72423          	sw	a2,8(a4)
    17a8:	00b72623          	sw	a1,12(a4)
    17ac:	00f82223          	sw	a5,4(a6)
    17b0:	00e6a023          	sw	a4,0(a3)
    17b4:	00e62623          	sw	a4,12(a2)
    17b8:	00040513          	addi	a0,s0,0
    17bc:	01812403          	lw	s0,24(sp)
    17c0:	01c12083          	lw	ra,28(sp)
    17c4:	02010113          	addi	sp,sp,32
    17c8:	2a10006f          	jal	zero,0x2268
    17cc:	02089e63          	bne	a7,zero,0x1808
    17d0:	000105b7          	lui	a1,0x10
    17d4:	00d787b3          	add	a5,a5,a3
    17d8:	15c58593          	addi	a1,a1,348 # 0x1015c
    17dc:	00862683          	lw	a3,8(a2)
    17e0:	0017e893          	ori	a7,a5,1
    17e4:	00f70533          	add	a0,a4,a5
    17e8:	16b68463          	beq	a3,a1,0x1950
    17ec:	00c62603          	lw	a2,12(a2)
    17f0:	00c6a623          	sw	a2,12(a3)
    17f4:	00d62423          	sw	a3,8(a2)
    17f8:	01172223          	sw	a7,4(a4)
    17fc:	00f52023          	sw	a5,0(a0)
    1800:	f75ff06f          	jal	zero,0x1774
    1804:	00008067          	jalr	zero,0(ra)
    1808:	00156513          	ori	a0,a0,1
    180c:	fea5ae23          	sw	a0,-4(a1)
    1810:	00f62023          	sw	a5,0(a2)
    1814:	1ff00693          	addi	a3,zero,511
    1818:	f6f6f2e3          	bgeu	a3,a5,0x177c
    181c:	0097d693          	srli	a3,a5,0x9
    1820:	00400613          	addi	a2,zero,4
    1824:	0ed66463          	bltu	a2,a3,0x190c
    1828:	0067d693          	srli	a3,a5,0x6
    182c:	03968593          	addi	a1,a3,57
    1830:	00359593          	slli	a1,a1,0x3
    1834:	03868613          	addi	a2,a3,56
    1838:	00b805b3          	add	a1,a6,a1
    183c:	0005a683          	lw	a3,0(a1)
    1840:	ff858593          	addi	a1,a1,-8
    1844:	00d59863          	bne	a1,a3,0x1854
    1848:	1240006f          	jal	zero,0x196c
    184c:	0086a683          	lw	a3,8(a3)
    1850:	00d58863          	beq	a1,a3,0x1860
    1854:	0046a603          	lw	a2,4(a3)
    1858:	ffc67613          	andi	a2,a2,-4
    185c:	fec7e8e3          	bltu	a5,a2,0x184c
    1860:	00c6a583          	lw	a1,12(a3)
    1864:	00b72623          	sw	a1,12(a4)
    1868:	00d72423          	sw	a3,8(a4)
    186c:	00040513          	addi	a0,s0,0
    1870:	01812403          	lw	s0,24(sp)
    1874:	01c12083          	lw	ra,28(sp)
    1878:	00e5a423          	sw	a4,8(a1)
    187c:	00e6a623          	sw	a4,12(a3)
    1880:	02010113          	addi	sp,sp,32
    1884:	1e50006f          	jal	zero,0x2268
    1888:	0a089463          	bne	a7,zero,0x1930
    188c:	00c62583          	lw	a1,12(a2)
    1890:	00862603          	lw	a2,8(a2)
    1894:	00f686b3          	add	a3,a3,a5
    1898:	0016e793          	ori	a5,a3,1
    189c:	00b62623          	sw	a1,12(a2)
    18a0:	00c5a423          	sw	a2,8(a1)
    18a4:	00f72223          	sw	a5,4(a4)
    18a8:	00d70733          	add	a4,a4,a3
    18ac:	00d72023          	sw	a3,0(a4)
    18b0:	f09ff06f          	jal	zero,0x17b8
    18b4:	00d786b3          	add	a3,a5,a3
    18b8:	02031063          	bne	t1,zero,0x18d8
    18bc:	ff85a783          	lw	a5,-8(a1)
    18c0:	40f70733          	sub	a4,a4,a5
    18c4:	00872603          	lw	a2,8(a4)
    18c8:	00f686b3          	add	a3,a3,a5
    18cc:	00c72783          	lw	a5,12(a4)
    18d0:	00f62623          	sw	a5,12(a2)
    18d4:	00c7a423          	sw	a2,8(a5)
    18d8:	000107b7          	lui	a5,0x10
    18dc:	0016e613          	ori	a2,a3,1
    18e0:	5687a783          	lw	a5,1384(a5) # 0x10568
    18e4:	00c72223          	sw	a2,4(a4)
    18e8:	00e82423          	sw	a4,8(a6)
    18ec:	ecf6e6e3          	bltu	a3,a5,0x17b8
    18f0:	000117b7          	lui	a5,0x11
    18f4:	1f47a583          	lw	a1,500(a5) # 0x111f4
    18f8:	00040513          	addi	a0,s0,0
    18fc:	cb1ff0ef          	jal	ra,0x15ac
    1900:	eb9ff06f          	jal	zero,0x17b8
    1904:	00d787b3          	add	a5,a5,a3
    1908:	ed5ff06f          	jal	zero,0x17dc
    190c:	01400613          	addi	a2,zero,20
    1910:	02d67863          	bgeu	a2,a3,0x1940
    1914:	05400613          	addi	a2,zero,84
    1918:	06d66863          	bltu	a2,a3,0x1988
    191c:	00c7d693          	srli	a3,a5,0xc
    1920:	06f68593          	addi	a1,a3,111
    1924:	00359593          	slli	a1,a1,0x3
    1928:	06e68613          	addi	a2,a3,110
    192c:	f0dff06f          	jal	zero,0x1838
    1930:	0017e693          	ori	a3,a5,1
    1934:	00d72223          	sw	a3,4(a4)
    1938:	00f62023          	sw	a5,0(a2)
    193c:	e7dff06f          	jal	zero,0x17b8
    1940:	05c68593          	addi	a1,a3,92
    1944:	00359593          	slli	a1,a1,0x3
    1948:	05b68613          	addi	a2,a3,91
    194c:	eedff06f          	jal	zero,0x1838
    1950:	00e82a23          	sw	a4,20(a6)
    1954:	00e82823          	sw	a4,16(a6)
    1958:	00b72623          	sw	a1,12(a4)
    195c:	00b72423          	sw	a1,8(a4)
    1960:	01172223          	sw	a7,4(a4)
    1964:	00f52023          	sw	a5,0(a0)
    1968:	e51ff06f          	jal	zero,0x17b8
    196c:	00482503          	lw	a0,4(a6)
    1970:	40265613          	srai	a2,a2,0x2
    1974:	00100793          	addi	a5,zero,1
    1978:	00c797b3          	sll	a5,a5,a2
    197c:	00a7e7b3          	or	a5,a5,a0
    1980:	00f82223          	sw	a5,4(a6)
    1984:	ee1ff06f          	jal	zero,0x1864
    1988:	15400613          	addi	a2,zero,340
    198c:	00d66c63          	bltu	a2,a3,0x19a4
    1990:	00f7d693          	srli	a3,a5,0xf
    1994:	07868593          	addi	a1,a3,120
    1998:	00359593          	slli	a1,a1,0x3
    199c:	07768613          	addi	a2,a3,119
    19a0:	e99ff06f          	jal	zero,0x1838
    19a4:	55400613          	addi	a2,zero,1364
    19a8:	00d66c63          	bltu	a2,a3,0x19c0
    19ac:	0127d693          	srli	a3,a5,0x12
    19b0:	07d68593          	addi	a1,a3,125
    19b4:	00359593          	slli	a1,a1,0x3
    19b8:	07c68613          	addi	a2,a3,124
    19bc:	e7dff06f          	jal	zero,0x1838
    19c0:	3f800593          	addi	a1,zero,1016
    19c4:	07e00613          	addi	a2,zero,126
    19c8:	e71ff06f          	jal	zero,0x1838
    19cc:	fc010113          	addi	sp,sp,-64
    19d0:	02812c23          	sw	s0,56(sp)
    19d4:	02112e23          	sw	ra,60(sp)
    19d8:	00b58793          	addi	a5,a1,11
    19dc:	01600713          	addi	a4,zero,22
    19e0:	00050413          	addi	s0,a0,0
    19e4:	08f76e63          	bltu	a4,a5,0x1a80
    19e8:	01000693          	addi	a3,zero,16
    19ec:	06b6ec63          	bltu	a3,a1,0x1a64
    19f0:	075000ef          	jal	ra,0x2264
    19f4:	01000693          	addi	a3,zero,16
    19f8:	01800713          	addi	a4,zero,24
    19fc:	00200893          	addi	a7,zero,2
    1a00:	00010837          	lui	a6,0x10
    1a04:	15480813          	addi	a6,a6,340 # 0x10154
    1a08:	00e80733          	add	a4,a6,a4
    1a0c:	00472783          	lw	a5,4(a4)
    1a10:	ff870613          	addi	a2,a4,-8
    1a14:	46c78863          	beq	a5,a2,0x1e84
    1a18:	0047a703          	lw	a4,4(a5)
    1a1c:	00c7a603          	lw	a2,12(a5)
    1a20:	0087a583          	lw	a1,8(a5)
    1a24:	ffc77713          	andi	a4,a4,-4
    1a28:	00e78733          	add	a4,a5,a4
    1a2c:	00472683          	lw	a3,4(a4)
    1a30:	00c5a623          	sw	a2,12(a1)
    1a34:	00f12623          	sw	a5,12(sp)
    1a38:	00b62423          	sw	a1,8(a2)
    1a3c:	0016e693          	ori	a3,a3,1
    1a40:	00040513          	addi	a0,s0,0
    1a44:	00d72223          	sw	a3,4(a4)
    1a48:	021000ef          	jal	ra,0x2268
    1a4c:	00c12783          	lw	a5,12(sp)
    1a50:	03c12083          	lw	ra,60(sp)
    1a54:	03812403          	lw	s0,56(sp)
    1a58:	00878513          	addi	a0,a5,8
    1a5c:	04010113          	addi	sp,sp,64
    1a60:	00008067          	jalr	zero,0(ra)
    1a64:	00c00793          	addi	a5,zero,12
    1a68:	00f42023          	sw	a5,0(s0)
    1a6c:	00000513          	addi	a0,zero,0
    1a70:	03c12083          	lw	ra,60(sp)
    1a74:	03812403          	lw	s0,56(sp)
    1a78:	04010113          	addi	sp,sp,64
    1a7c:	00008067          	jalr	zero,0(ra)
    1a80:	ff87f693          	andi	a3,a5,-8
    1a84:	fe07c0e3          	blt	a5,zero,0x1a64
    1a88:	fcb6eee3          	bltu	a3,a1,0x1a64
    1a8c:	00d12623          	sw	a3,12(sp)
    1a90:	7d4000ef          	jal	ra,0x2264
    1a94:	00c12683          	lw	a3,12(sp)
    1a98:	1f700793          	addi	a5,zero,503
    1a9c:	4ed7f263          	bgeu	a5,a3,0x1f80
    1aa0:	0096d793          	srli	a5,a3,0x9
    1aa4:	16078e63          	beq	a5,zero,0x1c20
    1aa8:	00400713          	addi	a4,zero,4
    1aac:	44f76463          	bltu	a4,a5,0x1ef4
    1ab0:	0066d793          	srli	a5,a3,0x6
    1ab4:	03978893          	addi	a7,a5,57
    1ab8:	03878e13          	addi	t3,a5,56
    1abc:	00389513          	slli	a0,a7,0x3
    1ac0:	00010837          	lui	a6,0x10
    1ac4:	15480813          	addi	a6,a6,340 # 0x10154
    1ac8:	00a80533          	add	a0,a6,a0
    1acc:	00452783          	lw	a5,4(a0)
    1ad0:	ff850513          	addi	a0,a0,-8
    1ad4:	02f50863          	beq	a0,a5,0x1b04
    1ad8:	00f00313          	addi	t1,zero,15
    1adc:	0140006f          	jal	zero,0x1af0
    1ae0:	00c7a583          	lw	a1,12(a5)
    1ae4:	36065063          	bge	a2,zero,0x1e44
    1ae8:	00b50e63          	beq	a0,a1,0x1b04
    1aec:	00058793          	addi	a5,a1,0
    1af0:	0047a703          	lw	a4,4(a5)
    1af4:	ffc77713          	andi	a4,a4,-4
    1af8:	40d70633          	sub	a2,a4,a3
    1afc:	fec352e3          	bge	t1,a2,0x1ae0
    1b00:	000e0893          	addi	a7,t3,0
    1b04:	01082783          	lw	a5,16(a6)
    1b08:	00010e37          	lui	t3,0x10
    1b0c:	15ce0e13          	addi	t3,t3,348 # 0x1015c
    1b10:	2fc78863          	beq	a5,t3,0x1e00
    1b14:	0047a703          	lw	a4,4(a5)
    1b18:	00f00593          	addi	a1,zero,15
    1b1c:	ffc77713          	andi	a4,a4,-4
    1b20:	40d70633          	sub	a2,a4,a3
    1b24:	48c5c863          	blt	a1,a2,0x1fb4
    1b28:	01c82a23          	sw	t3,20(a6)
    1b2c:	01c82823          	sw	t3,16(a6)
    1b30:	44065e63          	bge	a2,zero,0x1f8c
    1b34:	1ff00613          	addi	a2,zero,511
    1b38:	00482303          	lw	t1,4(a6)
    1b3c:	34e66c63          	bltu	a2,a4,0x1e94
    1b40:	ff877613          	andi	a2,a4,-8
    1b44:	00860613          	addi	a2,a2,8
    1b48:	00c80633          	add	a2,a6,a2
    1b4c:	00062583          	lw	a1,0(a2)
    1b50:	00575513          	srli	a0,a4,0x5
    1b54:	00100713          	addi	a4,zero,1
    1b58:	00a71733          	sll	a4,a4,a0
    1b5c:	00e36333          	or	t1,t1,a4
    1b60:	ff860713          	addi	a4,a2,-8
    1b64:	00b7a423          	sw	a1,8(a5)
    1b68:	00e7a623          	sw	a4,12(a5)
    1b6c:	00682223          	sw	t1,4(a6)
    1b70:	00f62023          	sw	a5,0(a2)
    1b74:	00f5a623          	sw	a5,12(a1)
    1b78:	4028d793          	srai	a5,a7,0x2
    1b7c:	00100513          	addi	a0,zero,1
    1b80:	00f51533          	sll	a0,a0,a5
    1b84:	0aa36663          	bltu	t1,a0,0x1c30
    1b88:	006577b3          	and	a5,a0,t1
    1b8c:	02079463          	bne	a5,zero,0x1bb4
    1b90:	00151513          	slli	a0,a0,0x1
    1b94:	ffc8f893          	andi	a7,a7,-4
    1b98:	006577b3          	and	a5,a0,t1
    1b9c:	00488893          	addi	a7,a7,4
    1ba0:	00079a63          	bne	a5,zero,0x1bb4
    1ba4:	00151513          	slli	a0,a0,0x1
    1ba8:	006577b3          	and	a5,a0,t1
    1bac:	00488893          	addi	a7,a7,4
    1bb0:	fe078ae3          	beq	a5,zero,0x1ba4
    1bb4:	00f00e93          	addi	t4,zero,15
    1bb8:	00389f13          	slli	t5,a7,0x3
    1bbc:	01e80f33          	add	t5,a6,t5
    1bc0:	000f0313          	addi	t1,t5,0
    1bc4:	00c32703          	lw	a4,12(t1)
    1bc8:	00088f93          	addi	t6,a7,0
    1bcc:	34e30663          	beq	t1,a4,0x1f18
    1bd0:	00472603          	lw	a2,4(a4)
    1bd4:	00070793          	addi	a5,a4,0
    1bd8:	00c72703          	lw	a4,12(a4)
    1bdc:	ffc67613          	andi	a2,a2,-4
    1be0:	40d605b3          	sub	a1,a2,a3
    1be4:	34bec663          	blt	t4,a1,0x1f30
    1be8:	fe05c2e3          	blt	a1,zero,0x1bcc
    1bec:	00c78633          	add	a2,a5,a2
    1bf0:	00462683          	lw	a3,4(a2)
    1bf4:	0087a583          	lw	a1,8(a5)
    1bf8:	00040513          	addi	a0,s0,0
    1bfc:	0016e693          	ori	a3,a3,1
    1c00:	00d62223          	sw	a3,4(a2)
    1c04:	00e5a623          	sw	a4,12(a1)
    1c08:	00b72423          	sw	a1,8(a4)
    1c0c:	00f12623          	sw	a5,12(sp)
    1c10:	658000ef          	jal	ra,0x2268
    1c14:	00c12783          	lw	a5,12(sp)
    1c18:	00878513          	addi	a0,a5,8
    1c1c:	e55ff06f          	jal	zero,0x1a70
    1c20:	20000513          	addi	a0,zero,512
    1c24:	04000893          	addi	a7,zero,64
    1c28:	03f00e13          	addi	t3,zero,63
    1c2c:	e95ff06f          	jal	zero,0x1ac0
    1c30:	00882783          	lw	a5,8(a6)
    1c34:	0047a703          	lw	a4,4(a5)
    1c38:	ffc77313          	andi	t1,a4,-4
    1c3c:	40d30633          	sub	a2,t1,a3
    1c40:	00d36663          	bltu	t1,a3,0x1c4c
    1c44:	01062713          	slti	a4,a2,16
    1c48:	1c070063          	beq	a4,zero,0x1e08
    1c4c:	00011737          	lui	a4,0x11
    1c50:	000108b7          	lui	a7,0x10
    1c54:	1f472583          	lw	a1,500(a4) # 0x111f4
    1c58:	5648a603          	lw	a2,1380(a7) # 0x10564
    1c5c:	fff00713          	addi	a4,zero,-1
    1c60:	00b685b3          	add	a1,a3,a1
    1c64:	42e60c63          	beq	a2,a4,0x209c
    1c68:	00001737          	lui	a4,0x1
    1c6c:	00f70713          	addi	a4,a4,15 # 0x100f
    1c70:	00e585b3          	add	a1,a1,a4
    1c74:	fffff737          	lui	a4,0xfffff
    1c78:	00e5f5b3          	and	a1,a1,a4
    1c7c:	00040513          	addi	a0,s0,0
    1c80:	01012e23          	sw	a6,28(sp)
    1c84:	00f12c23          	sw	a5,24(sp)
    1c88:	00d12a23          	sw	a3,20(sp)
    1c8c:	00612823          	sw	t1,16(sp)
    1c90:	00b12623          	sw	a1,12(sp)
    1c94:	245000ef          	jal	ra,0x26d8
    1c98:	fff00713          	addi	a4,zero,-1
    1c9c:	00c12583          	lw	a1,12(sp)
    1ca0:	01012303          	lw	t1,16(sp)
    1ca4:	01412683          	lw	a3,20(sp)
    1ca8:	01812783          	lw	a5,24(sp)
    1cac:	01c12803          	lw	a6,28(sp)
    1cb0:	00050e13          	addi	t3,a0,0
    1cb4:	000108b7          	lui	a7,0x10
    1cb8:	34e50c63          	beq	a0,a4,0x2010
    1cbc:	00678733          	add	a4,a5,t1
    1cc0:	34e56663          	bltu	a0,a4,0x200c
    1cc4:	00011eb7          	lui	t4,0x11
    1cc8:	194e8e93          	addi	t4,t4,404 # 0x11194
    1ccc:	000ea603          	lw	a2,0(t4)
    1cd0:	00c58633          	add	a2,a1,a2
    1cd4:	00cea023          	sw	a2,0(t4)
    1cd8:	4aa70063          	beq	a4,a0,0x2178
    1cdc:	5648af03          	lw	t5,1380(a7) # 0x10564
    1ce0:	fff00513          	addi	a0,zero,-1
    1ce4:	4aaf0863          	beq	t5,a0,0x2194
    1ce8:	40ee0733          	sub	a4,t3,a4
    1cec:	00c70733          	add	a4,a4,a2
    1cf0:	00eea023          	sw	a4,0(t4)
    1cf4:	007e7f13          	andi	t5,t3,7
    1cf8:	3c0f0263          	beq	t5,zero,0x20bc
    1cfc:	ff8e7e13          	andi	t3,t3,-8
    1d00:	000018b7          	lui	a7,0x1
    1d04:	008e0e13          	addi	t3,t3,8
    1d08:	00888893          	addi	a7,a7,8 # 0x1008
    1d0c:	00be0633          	add	a2,t3,a1
    1d10:	41e885b3          	sub	a1,a7,t5
    1d14:	40c585b3          	sub	a1,a1,a2
    1d18:	01459593          	slli	a1,a1,0x14
    1d1c:	0145d593          	srli	a1,a1,0x14
    1d20:	00040513          	addi	a0,s0,0
    1d24:	03012623          	sw	a6,44(sp)
    1d28:	03d12423          	sw	t4,40(sp)
    1d2c:	02f12223          	sw	a5,36(sp)
    1d30:	02d12023          	sw	a3,32(sp)
    1d34:	00612e23          	sw	t1,28(sp)
    1d38:	01c12c23          	sw	t3,24(sp)
    1d3c:	01e12a23          	sw	t5,20(sp)
    1d40:	00c12823          	sw	a2,16(sp)
    1d44:	00b12623          	sw	a1,12(sp)
    1d48:	191000ef          	jal	ra,0x26d8
    1d4c:	00050713          	addi	a4,a0,0
    1d50:	fff00513          	addi	a0,zero,-1
    1d54:	00c12583          	lw	a1,12(sp)
    1d58:	01012603          	lw	a2,16(sp)
    1d5c:	01412f03          	lw	t5,20(sp)
    1d60:	01812e03          	lw	t3,24(sp)
    1d64:	01c12303          	lw	t1,28(sp)
    1d68:	02012683          	lw	a3,32(sp)
    1d6c:	02412783          	lw	a5,36(sp)
    1d70:	02812e83          	lw	t4,40(sp)
    1d74:	02c12803          	lw	a6,44(sp)
    1d78:	46a70463          	beq	a4,a0,0x21e0
    1d7c:	000ea603          	lw	a2,0(t4)
    1d80:	41c70733          	sub	a4,a4,t3
    1d84:	00b70733          	add	a4,a4,a1
    1d88:	00176713          	ori	a4,a4,1
    1d8c:	01c82423          	sw	t3,8(a6)
    1d90:	00c58633          	add	a2,a1,a2
    1d94:	00ee2223          	sw	a4,4(t3)
    1d98:	00cea023          	sw	a2,0(t4)
    1d9c:	03078e63          	beq	a5,a6,0x1dd8
    1da0:	00f00513          	addi	a0,zero,15
    1da4:	3e657c63          	bgeu	a0,t1,0x219c
    1da8:	0047a583          	lw	a1,4(a5)
    1dac:	ff430713          	addi	a4,t1,-12
    1db0:	ff877713          	andi	a4,a4,-8
    1db4:	0015f593          	andi	a1,a1,1
    1db8:	00e5e5b3          	or	a1,a1,a4
    1dbc:	00b7a223          	sw	a1,4(a5)
    1dc0:	00500893          	addi	a7,zero,5
    1dc4:	00e785b3          	add	a1,a5,a4
    1dc8:	0115a223          	sw	a7,4(a1)
    1dcc:	0115a423          	sw	a7,8(a1)
    1dd0:	42e56063          	bltu	a0,a4,0x21f0
    1dd4:	004e2703          	lw	a4,4(t3)
    1dd8:	000117b7          	lui	a5,0x11
    1ddc:	1f07a583          	lw	a1,496(a5) # 0x111f0
    1de0:	00c5f463          	bgeu	a1,a2,0x1de8
    1de4:	1ec7a823          	sw	a2,496(a5)
    1de8:	000117b7          	lui	a5,0x11
    1dec:	1ec7a583          	lw	a1,492(a5) # 0x111ec
    1df0:	00c5f463          	bgeu	a1,a2,0x1df8
    1df4:	1ec7a623          	sw	a2,492(a5)
    1df8:	000e0793          	addi	a5,t3,0
    1dfc:	21c0006f          	jal	zero,0x2018
    1e00:	00482303          	lw	t1,4(a6)
    1e04:	d75ff06f          	jal	zero,0x1b78
    1e08:	0016e713          	ori	a4,a3,1
    1e0c:	00e7a223          	sw	a4,4(a5)
    1e10:	00d786b3          	add	a3,a5,a3
    1e14:	00166613          	ori	a2,a2,1
    1e18:	00d82423          	sw	a3,8(a6)
    1e1c:	00040513          	addi	a0,s0,0
    1e20:	00c6a223          	sw	a2,4(a3)
    1e24:	00f12623          	sw	a5,12(sp)
    1e28:	440000ef          	jal	ra,0x2268
    1e2c:	00c12783          	lw	a5,12(sp)
    1e30:	03c12083          	lw	ra,60(sp)
    1e34:	03812403          	lw	s0,56(sp)
    1e38:	00878513          	addi	a0,a5,8
    1e3c:	04010113          	addi	sp,sp,64
    1e40:	00008067          	jalr	zero,0(ra)
    1e44:	0087a603          	lw	a2,8(a5)
    1e48:	00e78733          	add	a4,a5,a4
    1e4c:	00472683          	lw	a3,4(a4) # 0xfffff004
    1e50:	00b62623          	sw	a1,12(a2)
    1e54:	00f12623          	sw	a5,12(sp)
    1e58:	0016e693          	ori	a3,a3,1
    1e5c:	00c5a423          	sw	a2,8(a1)
    1e60:	00040513          	addi	a0,s0,0
    1e64:	00d72223          	sw	a3,4(a4)
    1e68:	400000ef          	jal	ra,0x2268
    1e6c:	00c12783          	lw	a5,12(sp)
    1e70:	03c12083          	lw	ra,60(sp)
    1e74:	03812403          	lw	s0,56(sp)
    1e78:	00878513          	addi	a0,a5,8
    1e7c:	04010113          	addi	sp,sp,64
    1e80:	00008067          	jalr	zero,0(ra)
    1e84:	00c72783          	lw	a5,12(a4)
    1e88:	00288893          	addi	a7,a7,2
    1e8c:	c6f70ce3          	beq	a4,a5,0x1b04
    1e90:	b89ff06f          	jal	zero,0x1a18
    1e94:	00975613          	srli	a2,a4,0x9
    1e98:	00400593          	addi	a1,zero,4
    1e9c:	14c5fe63          	bgeu	a1,a2,0x1ff8
    1ea0:	01400593          	addi	a1,zero,20
    1ea4:	28c5e263          	bltu	a1,a2,0x2128
    1ea8:	05c60513          	addi	a0,a2,92
    1eac:	00351513          	slli	a0,a0,0x3
    1eb0:	05b60593          	addi	a1,a2,91
    1eb4:	00a80533          	add	a0,a6,a0
    1eb8:	00052603          	lw	a2,0(a0)
    1ebc:	ff850513          	addi	a0,a0,-8
    1ec0:	00c51863          	bne	a0,a2,0x1ed0
    1ec4:	1e00006f          	jal	zero,0x20a4
    1ec8:	00862603          	lw	a2,8(a2)
    1ecc:	00c50863          	beq	a0,a2,0x1edc
    1ed0:	00462583          	lw	a1,4(a2)
    1ed4:	ffc5f593          	andi	a1,a1,-4
    1ed8:	feb768e3          	bltu	a4,a1,0x1ec8
    1edc:	00c62503          	lw	a0,12(a2)
    1ee0:	00a7a623          	sw	a0,12(a5)
    1ee4:	00c7a423          	sw	a2,8(a5)
    1ee8:	00f52423          	sw	a5,8(a0)
    1eec:	00f62623          	sw	a5,12(a2)
    1ef0:	c89ff06f          	jal	zero,0x1b78
    1ef4:	01400713          	addi	a4,zero,20
    1ef8:	14f77063          	bgeu	a4,a5,0x2038
    1efc:	05400713          	addi	a4,zero,84
    1f00:	24f76263          	bltu	a4,a5,0x2144
    1f04:	00c6d793          	srli	a5,a3,0xc
    1f08:	06f78893          	addi	a7,a5,111
    1f0c:	06e78e13          	addi	t3,a5,110
    1f10:	00389513          	slli	a0,a7,0x3
    1f14:	badff06f          	jal	zero,0x1ac0
    1f18:	001f8f93          	addi	t6,t6,1
    1f1c:	003ff793          	andi	a5,t6,3
    1f20:	00830313          	addi	t1,t1,8
    1f24:	12078863          	beq	a5,zero,0x2054
    1f28:	00c32703          	lw	a4,12(t1)
    1f2c:	ca1ff06f          	jal	zero,0x1bcc
    1f30:	0087a503          	lw	a0,8(a5)
    1f34:	0016e893          	ori	a7,a3,1
    1f38:	0117a223          	sw	a7,4(a5)
    1f3c:	00e52623          	sw	a4,12(a0)
    1f40:	00a72423          	sw	a0,8(a4)
    1f44:	00d786b3          	add	a3,a5,a3
    1f48:	00d82a23          	sw	a3,20(a6)
    1f4c:	00d82823          	sw	a3,16(a6)
    1f50:	0015e713          	ori	a4,a1,1
    1f54:	00c78633          	add	a2,a5,a2
    1f58:	01c6a623          	sw	t3,12(a3)
    1f5c:	01c6a423          	sw	t3,8(a3)
    1f60:	00e6a223          	sw	a4,4(a3)
    1f64:	00040513          	addi	a0,s0,0
    1f68:	00b62023          	sw	a1,0(a2)
    1f6c:	00f12623          	sw	a5,12(sp)
    1f70:	2f8000ef          	jal	ra,0x2268
    1f74:	00c12783          	lw	a5,12(sp)
    1f78:	00878513          	addi	a0,a5,8
    1f7c:	af5ff06f          	jal	zero,0x1a70
    1f80:	0036d893          	srli	a7,a3,0x3
    1f84:	00868713          	addi	a4,a3,8
    1f88:	a79ff06f          	jal	zero,0x1a00
    1f8c:	00e78733          	add	a4,a5,a4
    1f90:	00472683          	lw	a3,4(a4)
    1f94:	00f12623          	sw	a5,12(sp)
    1f98:	00040513          	addi	a0,s0,0
    1f9c:	0016e693          	ori	a3,a3,1
    1fa0:	00d72223          	sw	a3,4(a4)
    1fa4:	2c4000ef          	jal	ra,0x2268
    1fa8:	00c12783          	lw	a5,12(sp)
    1fac:	00878513          	addi	a0,a5,8
    1fb0:	ac1ff06f          	jal	zero,0x1a70
    1fb4:	0016e593          	ori	a1,a3,1
    1fb8:	00b7a223          	sw	a1,4(a5)
    1fbc:	00d786b3          	add	a3,a5,a3
    1fc0:	00d82a23          	sw	a3,20(a6)
    1fc4:	00d82823          	sw	a3,16(a6)
    1fc8:	00166593          	ori	a1,a2,1
    1fcc:	00e78733          	add	a4,a5,a4
    1fd0:	01c6a623          	sw	t3,12(a3)
    1fd4:	01c6a423          	sw	t3,8(a3)
    1fd8:	00b6a223          	sw	a1,4(a3)
    1fdc:	00040513          	addi	a0,s0,0
    1fe0:	00c72023          	sw	a2,0(a4)
    1fe4:	00f12623          	sw	a5,12(sp)
    1fe8:	280000ef          	jal	ra,0x2268
    1fec:	00c12783          	lw	a5,12(sp)
    1ff0:	00878513          	addi	a0,a5,8
    1ff4:	a7dff06f          	jal	zero,0x1a70
    1ff8:	00675613          	srli	a2,a4,0x6
    1ffc:	03960513          	addi	a0,a2,57
    2000:	00351513          	slli	a0,a0,0x3
    2004:	03860593          	addi	a1,a2,56
    2008:	eadff06f          	jal	zero,0x1eb4
    200c:	15078a63          	beq	a5,a6,0x2160
    2010:	00882783          	lw	a5,8(a6)
    2014:	0047a703          	lw	a4,4(a5)
    2018:	ffc77713          	andi	a4,a4,-4
    201c:	40d70633          	sub	a2,a4,a3
    2020:	00d76663          	bltu	a4,a3,0x202c
    2024:	01062713          	slti	a4,a2,16
    2028:	de0700e3          	beq	a4,zero,0x1e08
    202c:	00040513          	addi	a0,s0,0
    2030:	238000ef          	jal	ra,0x2268
    2034:	a39ff06f          	jal	zero,0x1a6c
    2038:	05c78893          	addi	a7,a5,92
    203c:	05b78e13          	addi	t3,a5,91
    2040:	00389513          	slli	a0,a7,0x3
    2044:	a7dff06f          	jal	zero,0x1ac0
    2048:	008f2783          	lw	a5,8(t5)
    204c:	fff88893          	addi	a7,a7,-1
    2050:	21e79663          	bne	a5,t5,0x225c
    2054:	0038f793          	andi	a5,a7,3
    2058:	ff8f0f13          	addi	t5,t5,-8
    205c:	fe0796e3          	bne	a5,zero,0x2048
    2060:	00482703          	lw	a4,4(a6)
    2064:	fff54793          	xori	a5,a0,-1
    2068:	00e7f7b3          	and	a5,a5,a4
    206c:	00f82223          	sw	a5,4(a6)
    2070:	00151513          	slli	a0,a0,0x1
    2074:	fff50713          	addi	a4,a0,-1
    2078:	baf77ce3          	bgeu	a4,a5,0x1c30
    207c:	00f57733          	and	a4,a0,a5
    2080:	00071a63          	bne	a4,zero,0x2094
    2084:	00151513          	slli	a0,a0,0x1
    2088:	00f57733          	and	a4,a0,a5
    208c:	004f8f93          	addi	t6,t6,4
    2090:	fe070ae3          	beq	a4,zero,0x2084
    2094:	000f8893          	addi	a7,t6,0
    2098:	b21ff06f          	jal	zero,0x1bb8
    209c:	01058593          	addi	a1,a1,16
    20a0:	bddff06f          	jal	zero,0x1c7c
    20a4:	4025d593          	srai	a1,a1,0x2
    20a8:	00100713          	addi	a4,zero,1
    20ac:	00b71733          	sll	a4,a4,a1
    20b0:	00e36333          	or	t1,t1,a4
    20b4:	00682223          	sw	t1,4(a6)
    20b8:	e29ff06f          	jal	zero,0x1ee0
    20bc:	00be0633          	add	a2,t3,a1
    20c0:	40c005b3          	sub	a1,zero,a2
    20c4:	01459593          	slli	a1,a1,0x14
    20c8:	0145d593          	srli	a1,a1,0x14
    20cc:	00040513          	addi	a0,s0,0
    20d0:	03012423          	sw	a6,40(sp)
    20d4:	03d12223          	sw	t4,36(sp)
    20d8:	02f12023          	sw	a5,32(sp)
    20dc:	00d12e23          	sw	a3,28(sp)
    20e0:	00612c23          	sw	t1,24(sp)
    20e4:	01c12a23          	sw	t3,20(sp)
    20e8:	00b12623          	sw	a1,12(sp)
    20ec:	00c12823          	sw	a2,16(sp)
    20f0:	5e8000ef          	jal	ra,0x26d8
    20f4:	00050713          	addi	a4,a0,0
    20f8:	fff00513          	addi	a0,zero,-1
    20fc:	00c12583          	lw	a1,12(sp)
    2100:	01412e03          	lw	t3,20(sp)
    2104:	01812303          	lw	t1,24(sp)
    2108:	01c12683          	lw	a3,28(sp)
    210c:	02012783          	lw	a5,32(sp)
    2110:	02412e83          	lw	t4,36(sp)
    2114:	02812803          	lw	a6,40(sp)
    2118:	c6a712e3          	bne	a4,a0,0x1d7c
    211c:	01012703          	lw	a4,16(sp)
    2120:	00000593          	addi	a1,zero,0
    2124:	c59ff06f          	jal	zero,0x1d7c
    2128:	05400593          	addi	a1,zero,84
    212c:	06c5ee63          	bltu	a1,a2,0x21a8
    2130:	00c75613          	srli	a2,a4,0xc
    2134:	06f60513          	addi	a0,a2,111
    2138:	00351513          	slli	a0,a0,0x3
    213c:	06e60593          	addi	a1,a2,110
    2140:	d75ff06f          	jal	zero,0x1eb4
    2144:	15400713          	addi	a4,zero,340
    2148:	06f76e63          	bltu	a4,a5,0x21c4
    214c:	00f6d793          	srli	a5,a3,0xf
    2150:	07878893          	addi	a7,a5,120
    2154:	07778e13          	addi	t3,a5,119
    2158:	00389513          	slli	a0,a7,0x3
    215c:	965ff06f          	jal	zero,0x1ac0
    2160:	00011eb7          	lui	t4,0x11
    2164:	194e8e93          	addi	t4,t4,404 # 0x11194
    2168:	000ea603          	lw	a2,0(t4)
    216c:	00c58633          	add	a2,a1,a2
    2170:	00cea023          	sw	a2,0(t4)
    2174:	b69ff06f          	jal	zero,0x1cdc
    2178:	01451513          	slli	a0,a0,0x14
    217c:	b60510e3          	bne	a0,zero,0x1cdc
    2180:	00882e03          	lw	t3,8(a6)
    2184:	00b305b3          	add	a1,t1,a1
    2188:	0015e713          	ori	a4,a1,1
    218c:	00ee2223          	sw	a4,4(t3)
    2190:	c49ff06f          	jal	zero,0x1dd8
    2194:	57c8a223          	sw	t3,1380(a7)
    2198:	b5dff06f          	jal	zero,0x1cf4
    219c:	00100793          	addi	a5,zero,1
    21a0:	00fe2223          	sw	a5,4(t3)
    21a4:	e89ff06f          	jal	zero,0x202c
    21a8:	15400593          	addi	a1,zero,340
    21ac:	06c5ec63          	bltu	a1,a2,0x2224
    21b0:	00f75613          	srli	a2,a4,0xf
    21b4:	07860513          	addi	a0,a2,120
    21b8:	00351513          	slli	a0,a0,0x3
    21bc:	07760593          	addi	a1,a2,119
    21c0:	cf5ff06f          	jal	zero,0x1eb4
    21c4:	55400713          	addi	a4,zero,1364
    21c8:	06f76c63          	bltu	a4,a5,0x2240
    21cc:	0126d793          	srli	a5,a3,0x12
    21d0:	07d78893          	addi	a7,a5,125
    21d4:	07c78e13          	addi	t3,a5,124
    21d8:	00389513          	slli	a0,a7,0x3
    21dc:	8e5ff06f          	jal	zero,0x1ac0
    21e0:	ff8f0f13          	addi	t5,t5,-8
    21e4:	01e60733          	add	a4,a2,t5
    21e8:	00000593          	addi	a1,zero,0
    21ec:	b91ff06f          	jal	zero,0x1d7c
    21f0:	00878593          	addi	a1,a5,8
    21f4:	00040513          	addi	a0,s0,0
    21f8:	01012a23          	sw	a6,20(sp)
    21fc:	01d12823          	sw	t4,16(sp)
    2200:	00d12623          	sw	a3,12(sp)
    2204:	cd8ff0ef          	jal	ra,0x16dc
    2208:	01412803          	lw	a6,20(sp)
    220c:	01012e83          	lw	t4,16(sp)
    2210:	00c12683          	lw	a3,12(sp)
    2214:	00882e03          	lw	t3,8(a6)
    2218:	000ea603          	lw	a2,0(t4)
    221c:	004e2703          	lw	a4,4(t3)
    2220:	bb9ff06f          	jal	zero,0x1dd8
    2224:	55400593          	addi	a1,zero,1364
    2228:	02c5e463          	bltu	a1,a2,0x2250
    222c:	01275613          	srli	a2,a4,0x12
    2230:	07d60513          	addi	a0,a2,125
    2234:	00351513          	slli	a0,a0,0x3
    2238:	07c60593          	addi	a1,a2,124
    223c:	c79ff06f          	jal	zero,0x1eb4
    2240:	3f800513          	addi	a0,zero,1016
    2244:	07f00893          	addi	a7,zero,127
    2248:	07e00e13          	addi	t3,zero,126
    224c:	875ff06f          	jal	zero,0x1ac0
    2250:	3f800513          	addi	a0,zero,1016
    2254:	07e00593          	addi	a1,zero,126
    2258:	c5dff06f          	jal	zero,0x1eb4
    225c:	00482783          	lw	a5,4(a6)
    2260:	e11ff06f          	jal	zero,0x2070
    2264:	00008067          	jalr	zero,0(ra)
    2268:	00008067          	jalr	zero,0(ra)
    226c:	ff010113          	addi	sp,sp,-16
    2270:	00112623          	sw	ra,12(sp)
    2274:	01212023          	sw	s2,0(sp)
    2278:	02058863          	beq	a1,zero,0x22a8
    227c:	00812423          	sw	s0,8(sp)
    2280:	00912223          	sw	s1,4(sp)
    2284:	00058413          	addi	s0,a1,0
    2288:	00050493          	addi	s1,a0,0
    228c:	00050663          	beq	a0,zero,0x2298
    2290:	03452783          	lw	a5,52(a0)
    2294:	0c078c63          	beq	a5,zero,0x236c
    2298:	00c41783          	lh	a5,12(s0)
    229c:	02079263          	bne	a5,zero,0x22c0
    22a0:	00812403          	lw	s0,8(sp)
    22a4:	00412483          	lw	s1,4(sp)
    22a8:	00c12083          	lw	ra,12(sp)
    22ac:	00000913          	addi	s2,zero,0
    22b0:	00090513          	addi	a0,s2,0
    22b4:	00012903          	lw	s2,0(sp)
    22b8:	01010113          	addi	sp,sp,16
    22bc:	00008067          	jalr	zero,0(ra)
    22c0:	00040593          	addi	a1,s0,0
    22c4:	00048513          	addi	a0,s1,0
    22c8:	0bc000ef          	jal	ra,0x2384
    22cc:	02c42783          	lw	a5,44(s0)
    22d0:	00050913          	addi	s2,a0,0
    22d4:	00078a63          	beq	a5,zero,0x22e8
    22d8:	01c42583          	lw	a1,28(s0)
    22dc:	00048513          	addi	a0,s1,0
    22e0:	000780e7          	jalr	ra,0(a5)
    22e4:	06054463          	blt	a0,zero,0x234c
    22e8:	00c45783          	lhu	a5,12(s0)
    22ec:	0807f793          	andi	a5,a5,128
    22f0:	06079663          	bne	a5,zero,0x235c
    22f4:	03042583          	lw	a1,48(s0)
    22f8:	00058c63          	beq	a1,zero,0x2310
    22fc:	04040793          	addi	a5,s0,64
    2300:	00f58663          	beq	a1,a5,0x230c
    2304:	00048513          	addi	a0,s1,0
    2308:	bd4ff0ef          	jal	ra,0x16dc
    230c:	02042823          	sw	zero,48(s0)
    2310:	04442583          	lw	a1,68(s0)
    2314:	00058863          	beq	a1,zero,0x2324
    2318:	00048513          	addi	a0,s1,0
    231c:	bc0ff0ef          	jal	ra,0x16dc
    2320:	04042223          	sw	zero,68(s0)
    2324:	cddfe0ef          	jal	ra,0x1000
    2328:	00041623          	sh	zero,12(s0)
    232c:	cd9fe0ef          	jal	ra,0x1004
    2330:	00c12083          	lw	ra,12(sp)
    2334:	00812403          	lw	s0,8(sp)
    2338:	00412483          	lw	s1,4(sp)
    233c:	00090513          	addi	a0,s2,0
    2340:	00012903          	lw	s2,0(sp)
    2344:	01010113          	addi	sp,sp,16
    2348:	00008067          	jalr	zero,0(ra)
    234c:	00c45783          	lhu	a5,12(s0)
    2350:	fff00913          	addi	s2,zero,-1
    2354:	0807f793          	andi	a5,a5,128
    2358:	f8078ee3          	beq	a5,zero,0x22f4
    235c:	01042583          	lw	a1,16(s0)
    2360:	00048513          	addi	a0,s1,0
    2364:	b78ff0ef          	jal	ra,0x16dc
    2368:	f8dff06f          	jal	zero,0x22f4
    236c:	c6dfe0ef          	jal	ra,0xfd8
    2370:	f29ff06f          	jal	zero,0x2298
    2374:	000107b7          	lui	a5,0x10
    2378:	00050593          	addi	a1,a0,0
    237c:	5607a503          	lw	a0,1376(a5) # 0x10560
    2380:	eedff06f          	jal	zero,0x226c
    2384:	00c59703          	lh	a4,12(a1)
    2388:	fe010113          	addi	sp,sp,-32
    238c:	00812c23          	sw	s0,24(sp)
    2390:	01312623          	sw	s3,12(sp)
    2394:	00112e23          	sw	ra,28(sp)
    2398:	00877793          	andi	a5,a4,8
    239c:	00058413          	addi	s0,a1,0
    23a0:	00050993          	addi	s3,a0,0
    23a4:	12079263          	bne	a5,zero,0x24c8
    23a8:	000017b7          	lui	a5,0x1
    23ac:	80078793          	addi	a5,a5,-2048 # 0x800
    23b0:	0045a683          	lw	a3,4(a1)
    23b4:	00f767b3          	or	a5,a4,a5
    23b8:	00f59623          	sh	a5,12(a1)
    23bc:	18d05c63          	bge	zero,a3,0x2554
    23c0:	02842803          	lw	a6,40(s0)
    23c4:	0e080663          	beq	a6,zero,0x24b0
    23c8:	00912a23          	sw	s1,20(sp)
    23cc:	01371693          	slli	a3,a4,0x13
    23d0:	0009a483          	lw	s1,0(s3)
    23d4:	0009a023          	sw	zero,0(s3)
    23d8:	1806ca63          	blt	a3,zero,0x256c
    23dc:	01c42583          	lw	a1,28(s0)
    23e0:	00000613          	addi	a2,zero,0
    23e4:	00100693          	addi	a3,zero,1
    23e8:	00098513          	addi	a0,s3,0
    23ec:	000800e7          	jalr	ra,0(a6)
    23f0:	fff00793          	addi	a5,zero,-1
    23f4:	00050613          	addi	a2,a0,0
    23f8:	1af50c63          	beq	a0,a5,0x25b0
    23fc:	00c41783          	lh	a5,12(s0)
    2400:	02842803          	lw	a6,40(s0)
    2404:	0047f793          	andi	a5,a5,4
    2408:	00078e63          	beq	a5,zero,0x2424
    240c:	00442703          	lw	a4,4(s0)
    2410:	03042783          	lw	a5,48(s0)
    2414:	40e60633          	sub	a2,a2,a4
    2418:	00078663          	beq	a5,zero,0x2424
    241c:	03c42783          	lw	a5,60(s0)
    2420:	40f60633          	sub	a2,a2,a5
    2424:	01c42583          	lw	a1,28(s0)
    2428:	00000693          	addi	a3,zero,0
    242c:	00098513          	addi	a0,s3,0
    2430:	000800e7          	jalr	ra,0(a6)
    2434:	fff00713          	addi	a4,zero,-1
    2438:	00c41783          	lh	a5,12(s0)
    243c:	12e51c63          	bne	a0,a4,0x2574
    2440:	0009a683          	lw	a3,0(s3)
    2444:	01d00713          	addi	a4,zero,29
    2448:	18d76263          	bltu	a4,a3,0x25cc
    244c:	20400737          	lui	a4,0x20400
    2450:	00170713          	addi	a4,a4,1 # 0x20400001
    2454:	00d75733          	srl	a4,a4,a3
    2458:	00177713          	andi	a4,a4,1
    245c:	16070863          	beq	a4,zero,0x25cc
    2460:	01042683          	lw	a3,16(s0)
    2464:	fffff737          	lui	a4,0xfffff
    2468:	7ff70713          	addi	a4,a4,2047 # 0xfffff7ff
    246c:	00e7f733          	and	a4,a5,a4
    2470:	00e41623          	sh	a4,12(s0)
    2474:	00042223          	sw	zero,4(s0)
    2478:	00d42023          	sw	a3,0(s0)
    247c:	01379713          	slli	a4,a5,0x13
    2480:	00075663          	bge	a4,zero,0x248c
    2484:	0009a783          	lw	a5,0(s3)
    2488:	10078863          	beq	a5,zero,0x2598
    248c:	03042583          	lw	a1,48(s0)
    2490:	0099a023          	sw	s1,0(s3)
    2494:	10058a63          	beq	a1,zero,0x25a8
    2498:	04040793          	addi	a5,s0,64
    249c:	00f58663          	beq	a1,a5,0x24a8
    24a0:	00098513          	addi	a0,s3,0
    24a4:	a38ff0ef          	jal	ra,0x16dc
    24a8:	01412483          	lw	s1,20(sp)
    24ac:	02042823          	sw	zero,48(s0)
    24b0:	01c12083          	lw	ra,28(sp)
    24b4:	01812403          	lw	s0,24(sp)
    24b8:	00c12983          	lw	s3,12(sp)
    24bc:	00000513          	addi	a0,zero,0
    24c0:	02010113          	addi	sp,sp,32
    24c4:	00008067          	jalr	zero,0(ra)
    24c8:	01212823          	sw	s2,16(sp)
    24cc:	0105a903          	lw	s2,16(a1)
    24d0:	08090a63          	beq	s2,zero,0x2564
    24d4:	00912a23          	sw	s1,20(sp)
    24d8:	0005a483          	lw	s1,0(a1)
    24dc:	00377713          	andi	a4,a4,3
    24e0:	0125a023          	sw	s2,0(a1)
    24e4:	412484b3          	sub	s1,s1,s2
    24e8:	00000793          	addi	a5,zero,0
    24ec:	00071463          	bne	a4,zero,0x24f4
    24f0:	0145a783          	lw	a5,20(a1)
    24f4:	00f42423          	sw	a5,8(s0)
    24f8:	00904863          	blt	zero,s1,0x2508
    24fc:	0640006f          	jal	zero,0x2560
    2500:	00a90933          	add	s2,s2,a0
    2504:	04905e63          	bge	zero,s1,0x2560
    2508:	02442783          	lw	a5,36(s0)
    250c:	01c42583          	lw	a1,28(s0)
    2510:	00048693          	addi	a3,s1,0
    2514:	00090613          	addi	a2,s2,0
    2518:	00098513          	addi	a0,s3,0
    251c:	000780e7          	jalr	ra,0(a5)
    2520:	40a484b3          	sub	s1,s1,a0
    2524:	fca04ee3          	blt	zero,a0,0x2500
    2528:	00c45783          	lhu	a5,12(s0)
    252c:	01012903          	lw	s2,16(sp)
    2530:	0407e793          	ori	a5,a5,64
    2534:	01c12083          	lw	ra,28(sp)
    2538:	00f41623          	sh	a5,12(s0)
    253c:	01812403          	lw	s0,24(sp)
    2540:	01412483          	lw	s1,20(sp)
    2544:	00c12983          	lw	s3,12(sp)
    2548:	fff00513          	addi	a0,zero,-1
    254c:	02010113          	addi	sp,sp,32
    2550:	00008067          	jalr	zero,0(ra)
    2554:	03c5a683          	lw	a3,60(a1)
    2558:	e6d044e3          	blt	zero,a3,0x23c0
    255c:	f55ff06f          	jal	zero,0x24b0
    2560:	01412483          	lw	s1,20(sp)
    2564:	01012903          	lw	s2,16(sp)
    2568:	f49ff06f          	jal	zero,0x24b0
    256c:	05042603          	lw	a2,80(s0)
    2570:	e95ff06f          	jal	zero,0x2404
    2574:	01042683          	lw	a3,16(s0)
    2578:	fffff737          	lui	a4,0xfffff
    257c:	7ff70713          	addi	a4,a4,2047 # 0xfffff7ff
    2580:	00e7f733          	and	a4,a5,a4
    2584:	00e41623          	sh	a4,12(s0)
    2588:	00042223          	sw	zero,4(s0)
    258c:	00d42023          	sw	a3,0(s0)
    2590:	01379713          	slli	a4,a5,0x13
    2594:	ee075ce3          	bge	a4,zero,0x248c
    2598:	03042583          	lw	a1,48(s0)
    259c:	04a42823          	sw	a0,80(s0)
    25a0:	0099a023          	sw	s1,0(s3)
    25a4:	ee059ae3          	bne	a1,zero,0x2498
    25a8:	01412483          	lw	s1,20(sp)
    25ac:	f05ff06f          	jal	zero,0x24b0
    25b0:	0009a783          	lw	a5,0(s3)
    25b4:	e40784e3          	beq	a5,zero,0x23fc
    25b8:	fe378713          	addi	a4,a5,-29
    25bc:	00070c63          	beq	a4,zero,0x25d4
    25c0:	fea78793          	addi	a5,a5,-22
    25c4:	00078863          	beq	a5,zero,0x25d4
    25c8:	00c45783          	lhu	a5,12(s0)
    25cc:	0407e793          	ori	a5,a5,64
    25d0:	f65ff06f          	jal	zero,0x2534
    25d4:	0099a023          	sw	s1,0(s3)
    25d8:	01412483          	lw	s1,20(sp)
    25dc:	ed5ff06f          	jal	zero,0x24b0
    25e0:	00050793          	addi	a5,a0,0
    25e4:	00050663          	beq	a0,zero,0x25f0
    25e8:	03452703          	lw	a4,52(a0)
    25ec:	00070e63          	beq	a4,zero,0x2608
    25f0:	00c59703          	lh	a4,12(a1)
    25f4:	00071663          	bne	a4,zero,0x2600
    25f8:	00000513          	addi	a0,zero,0
    25fc:	00008067          	jalr	zero,0(ra)
    2600:	00078513          	addi	a0,a5,0
    2604:	d81ff06f          	jal	zero,0x2384
    2608:	fe010113          	addi	sp,sp,-32
    260c:	00b12623          	sw	a1,12(sp)
    2610:	00112e23          	sw	ra,28(sp)
    2614:	00a12423          	sw	a0,8(sp)
    2618:	9c1fe0ef          	jal	ra,0xfd8
    261c:	00c12583          	lw	a1,12(sp)
    2620:	00812783          	lw	a5,8(sp)
    2624:	00c59703          	lh	a4,12(a1)
    2628:	00070a63          	beq	a4,zero,0x263c
    262c:	01c12083          	lw	ra,28(sp)
    2630:	00078513          	addi	a0,a5,0
    2634:	02010113          	addi	sp,sp,32
    2638:	d4dff06f          	jal	zero,0x2384
    263c:	01c12083          	lw	ra,28(sp)
    2640:	00000513          	addi	a0,zero,0
    2644:	02010113          	addi	sp,sp,32
    2648:	00008067          	jalr	zero,0(ra)
    264c:	06050263          	beq	a0,zero,0x26b0
    2650:	000107b7          	lui	a5,0x10
    2654:	00050593          	addi	a1,a0,0
    2658:	5607a503          	lw	a0,1376(a5) # 0x10560
    265c:	00050663          	beq	a0,zero,0x2668
    2660:	03452783          	lw	a5,52(a0)
    2664:	00078c63          	beq	a5,zero,0x267c
    2668:	00c59783          	lh	a5,12(a1)
    266c:	00079663          	bne	a5,zero,0x2678
    2670:	00000513          	addi	a0,zero,0
    2674:	00008067          	jalr	zero,0(ra)
    2678:	d0dff06f          	jal	zero,0x2384
    267c:	fe010113          	addi	sp,sp,-32
    2680:	00b12623          	sw	a1,12(sp)
    2684:	00a12423          	sw	a0,8(sp)
    2688:	00112e23          	sw	ra,28(sp)
    268c:	94dfe0ef          	jal	ra,0xfd8
    2690:	00c12583          	lw	a1,12(sp)
    2694:	00812503          	lw	a0,8(sp)
    2698:	00c59783          	lh	a5,12(a1)
    269c:	02079863          	bne	a5,zero,0x26cc
    26a0:	01c12083          	lw	ra,28(sp)
    26a4:	00000513          	addi	a0,zero,0
    26a8:	02010113          	addi	sp,sp,32
    26ac:	00008067          	jalr	zero,0(ra)
    26b0:	00010637          	lui	a2,0x10
    26b4:	000025b7          	lui	a1,0x2
    26b8:	00010537          	lui	a0,0x10
    26bc:	14860613          	addi	a2,a2,328 # 0x10148
    26c0:	5e058593          	addi	a1,a1,1504 # 0x25e0
    26c4:	00850513          	addi	a0,a0,8 # 0x10008
    26c8:	971fe06f          	jal	zero,0x1038
    26cc:	01c12083          	lw	ra,28(sp)
    26d0:	02010113          	addi	sp,sp,32
    26d4:	cb1ff06f          	jal	zero,0x2384
    26d8:	ff010113          	addi	sp,sp,-16
    26dc:	00812423          	sw	s0,8(sp)
    26e0:	00912223          	sw	s1,4(sp)
    26e4:	00011437          	lui	s0,0x11
    26e8:	00050493          	addi	s1,a0,0
    26ec:	00058513          	addi	a0,a1,0
    26f0:	00112623          	sw	ra,12(sp)
    26f4:	1e042423          	sw	zero,488(s0) # 0x111e8
    26f8:	07c000ef          	jal	ra,0x2774
    26fc:	fff00793          	addi	a5,zero,-1
    2700:	00f50c63          	beq	a0,a5,0x2718
    2704:	00c12083          	lw	ra,12(sp)
    2708:	00812403          	lw	s0,8(sp)
    270c:	00412483          	lw	s1,4(sp)
    2710:	01010113          	addi	sp,sp,16
    2714:	00008067          	jalr	zero,0(ra)
    2718:	1e842783          	lw	a5,488(s0)
    271c:	fe0784e3          	beq	a5,zero,0x2704
    2720:	00c12083          	lw	ra,12(sp)
    2724:	00812403          	lw	s0,8(sp)
    2728:	00f4a023          	sw	a5,0(s1)
    272c:	00412483          	lw	s1,4(sp)
    2730:	01010113          	addi	sp,sp,16
    2734:	00008067          	jalr	zero,0(ra)
    2738:	000117b7          	lui	a5,0x11
    273c:	05800713          	addi	a4,zero,88
    2740:	1ee7a423          	sw	a4,488(a5) # 0x111e8
    2744:	fff00513          	addi	a0,zero,-1
    2748:	00008067          	jalr	zero,0(ra)
    274c:	000117b7          	lui	a5,0x11
    2750:	05800713          	addi	a4,zero,88
    2754:	1ee7a423          	sw	a4,488(a5) # 0x111e8
    2758:	fff00513          	addi	a0,zero,-1
    275c:	00008067          	jalr	zero,0(ra)
    2760:	000117b7          	lui	a5,0x11
    2764:	05800713          	addi	a4,zero,88
    2768:	1ee7a423          	sw	a4,488(a5) # 0x111e8
    276c:	fff00513          	addi	a0,zero,-1
    2770:	00008067          	jalr	zero,0(ra)
    2774:	00011737          	lui	a4,0x11
    2778:	1f872783          	lw	a5,504(a4) # 0x111f8
    277c:	00078a63          	beq	a5,zero,0x2790
    2780:	00a78533          	add	a0,a5,a0
    2784:	1ea72c23          	sw	a0,504(a4)
    2788:	00078513          	addi	a0,a5,0
    278c:	00008067          	jalr	zero,0(ra)
    2790:	000117b7          	lui	a5,0x11
    2794:	1bc78793          	addi	a5,a5,444 # 0x111bc
    2798:	00a78533          	add	a0,a5,a0
    279c:	1ea72c23          	sw	a0,504(a4)
    27a0:	00078513          	addi	a0,a5,0
    27a4:	00008067          	jalr	zero,0(ra)
    27a8:	000117b7          	lui	a5,0x11
    27ac:	05800713          	addi	a4,zero,88
    27b0:	1ee7a423          	sw	a4,488(a5) # 0x111e8
    27b4:	fff00513          	addi	a0,zero,-1
    27b8:	00008067          	jalr	zero,0(ra)
    27bc:	ff010113          	addi	sp,sp,-16
    27c0:	00068313          	addi	t1,a3,0
    27c4:	00112623          	sw	ra,12(sp)
    27c8:	00050e13          	addi	t3,a0,0
    27cc:	00050693          	addi	a3,a0,0
    27d0:	00060893          	addi	a7,a2,0
    27d4:	00000713          	addi	a4,zero,0
    27d8:	00000793          	addi	a5,zero,0
    27dc:	00000813          	addi	a6,zero,0
    27e0:	0018fe93          	andi	t4,a7,1
    27e4:	00171513          	slli	a0,a4,0x1
    27e8:	000e8a63          	beq	t4,zero,0x27fc
    27ec:	01068833          	add	a6,a3,a6
    27f0:	00e787b3          	add	a5,a5,a4
    27f4:	00d83733          	sltu	a4,a6,a3
    27f8:	00f707b3          	add	a5,a4,a5
    27fc:	01f6d713          	srli	a4,a3,0x1f
    2800:	0018d893          	srli	a7,a7,0x1
    2804:	00e56733          	or	a4,a0,a4
    2808:	00169693          	slli	a3,a3,0x1
    280c:	fc089ae3          	bne	a7,zero,0x27e0
    2810:	00058863          	beq	a1,zero,0x2820
    2814:	00060513          	addi	a0,a2,0
    2818:	0e4000ef          	jal	ra,0x28fc
    281c:	00a787b3          	add	a5,a5,a0
    2820:	00030a63          	beq	t1,zero,0x2834
    2824:	000e0513          	addi	a0,t3,0
    2828:	00030593          	addi	a1,t1,0
    282c:	0d0000ef          	jal	ra,0x28fc
    2830:	00f507b3          	add	a5,a0,a5
    2834:	00c12083          	lw	ra,12(sp)
    2838:	00080513          	addi	a0,a6,0
    283c:	00078593          	addi	a1,a5,0
    2840:	01010113          	addi	sp,sp,16
    2844:	00008067          	jalr	zero,0(ra)
    2848:	06054063          	blt	a0,zero,0x28a8
    284c:	0605c663          	blt	a1,zero,0x28b8
    2850:	00058613          	addi	a2,a1,0
    2854:	00050593          	addi	a1,a0,0
    2858:	fff00513          	addi	a0,zero,-1
    285c:	02060c63          	beq	a2,zero,0x2894
    2860:	00100693          	addi	a3,zero,1
    2864:	00b67a63          	bgeu	a2,a1,0x2878
    2868:	00c05863          	bge	zero,a2,0x2878
    286c:	00161613          	slli	a2,a2,0x1
    2870:	00169693          	slli	a3,a3,0x1
    2874:	feb66ae3          	bltu	a2,a1,0x2868
    2878:	00000513          	addi	a0,zero,0
    287c:	00c5e663          	bltu	a1,a2,0x2888
    2880:	40c585b3          	sub	a1,a1,a2
    2884:	00d56533          	or	a0,a0,a3
    2888:	0016d693          	srli	a3,a3,0x1
    288c:	00165613          	srli	a2,a2,0x1
    2890:	fe0696e3          	bne	a3,zero,0x287c
    2894:	00008067          	jalr	zero,0(ra)
    2898:	00008293          	addi	t0,ra,0
    289c:	fb5ff0ef          	jal	ra,0x2850
    28a0:	00058513          	addi	a0,a1,0
    28a4:	00028067          	jalr	zero,0(t0)
    28a8:	40a00533          	sub	a0,zero,a0
    28ac:	00b04863          	blt	zero,a1,0x28bc
    28b0:	40b005b3          	sub	a1,zero,a1
    28b4:	f9dff06f          	jal	zero,0x2850
    28b8:	40b005b3          	sub	a1,zero,a1
    28bc:	00008293          	addi	t0,ra,0
    28c0:	f91ff0ef          	jal	ra,0x2850
    28c4:	40a00533          	sub	a0,zero,a0
    28c8:	00028067          	jalr	zero,0(t0)
    28cc:	00008293          	addi	t0,ra,0
    28d0:	0005ca63          	blt	a1,zero,0x28e4
    28d4:	00054c63          	blt	a0,zero,0x28ec
    28d8:	f79ff0ef          	jal	ra,0x2850
    28dc:	00058513          	addi	a0,a1,0
    28e0:	00028067          	jalr	zero,0(t0)
    28e4:	40b005b3          	sub	a1,zero,a1
    28e8:	fe0558e3          	bge	a0,zero,0x28d8
    28ec:	40a00533          	sub	a0,zero,a0
    28f0:	f61ff0ef          	jal	ra,0x2850
    28f4:	40b00533          	sub	a0,zero,a1
    28f8:	00028067          	jalr	zero,0(t0)
    28fc:	00050613          	addi	a2,a0,0
    2900:	00000513          	addi	a0,zero,0
    2904:	0015f693          	andi	a3,a1,1
    2908:	00068463          	beq	a3,zero,0x2910
    290c:	00c50533          	add	a0,a0,a2
    2910:	0015d593          	srli	a1,a1,0x1
    2914:	00161613          	slli	a2,a2,0x1
    2918:	fe0596e3          	bne	a1,zero,0x2904
    291c:	00008067          	jalr	zero,0(ra)
