
build/test_build/test_build.elf:     file format elf32-littleriscv


Disassembly of section .text:

00000000 <.text>:
       0:	00020117          	auipc	sp,0x20
       4:	00010113          	addi	sp,sp,0 # 0x20000
       8:	00001517          	auipc	a0,0x1
       c:	29c50513          	addi	a0,a0,668 # 0x12a4
      10:	00010597          	auipc	a1,0x10
      14:	ff058593          	addi	a1,a1,-16 # 0x10000
      18:	00010617          	auipc	a2,0x10
      1c:	ff860613          	addi	a2,a2,-8 # 0x10010
      20:	00c5fc63          	bgeu	a1,a2,0x38
      24:	00052283          	lw	t0,0(a0)
      28:	0055a023          	sw	t0,0(a1)
      2c:	00450513          	addi	a0,a0,4
      30:	00458593          	addi	a1,a1,4
      34:	fedff06f          	jal	zero,0x20
      38:	00001517          	auipc	a0,0x1
      3c:	27c50513          	addi	a0,a0,636 # 0x12b4
      40:	00010597          	auipc	a1,0x10
      44:	fd058593          	addi	a1,a1,-48 # 0x10010
      48:	00010617          	auipc	a2,0x10
      4c:	fe860613          	addi	a2,a2,-24 # 0x10030
      50:	00c5fc63          	bgeu	a1,a2,0x68
      54:	00052283          	lw	t0,0(a0)
      58:	0055a023          	sw	t0,0(a1)
      5c:	00450513          	addi	a0,a0,4
      60:	00458593          	addi	a1,a1,4
      64:	fedff06f          	jal	zero,0x50
      68:	00010517          	auipc	a0,0x10
      6c:	fe850513          	addi	a0,a0,-24 # 0x10050
      70:	00010597          	auipc	a1,0x10
      74:	01058593          	addi	a1,a1,16 # 0x10080
      78:	00000613          	addi	a2,zero,0
      7c:	00b57863          	bgeu	a0,a1,0x8c
      80:	00c52023          	sw	a2,0(a0)
      84:	00450513          	addi	a0,a0,4
      88:	ff5ff06f          	jal	zero,0x7c
      8c:	1b8010ef          	jal	ra,0x1244
      90:	00000073          	ecall
      94:	00100073          	ebreak
      98:	fe010113          	addi	sp,sp,-32
      9c:	00112e23          	sw	ra,28(sp)
      a0:	00812c23          	sw	s0,24(sp)
      a4:	02010413          	addi	s0,sp,32
      a8:	fea42623          	sw	a0,-20(s0)
      ac:	000107b7          	lui	a5,0x10
      b0:	0807a783          	lw	a5,128(a5) # 0x10080
      b4:	00679713          	slli	a4,a5,0x6
      b8:	fec42783          	lw	a5,-20(s0)
      bc:	00f70733          	add	a4,a4,a5
      c0:	000107b7          	lui	a5,0x10
      c4:	0807a783          	lw	a5,128(a5) # 0x10080
      c8:	0027d793          	srli	a5,a5,0x2
      cc:	00f70733          	add	a4,a4,a5
      d0:	9e3787b7          	lui	a5,0x9e378
      d4:	9b978793          	addi	a5,a5,-1607 # 0x9e3779b9
      d8:	00f70733          	add	a4,a4,a5
      dc:	000107b7          	lui	a5,0x10
      e0:	0807a783          	lw	a5,128(a5) # 0x10080
      e4:	00f74733          	xor	a4,a4,a5
      e8:	000107b7          	lui	a5,0x10
      ec:	08e7a023          	sw	a4,128(a5) # 0x10080
      f0:	00000013          	addi	zero,zero,0
      f4:	01c12083          	lw	ra,28(sp)
      f8:	01812403          	lw	s0,24(sp)
      fc:	02010113          	addi	sp,sp,32
     100:	00008067          	jalr	zero,0(ra)
     104:	fe010113          	addi	sp,sp,-32
     108:	00112e23          	sw	ra,28(sp)
     10c:	00812c23          	sw	s0,24(sp)
     110:	02010413          	addi	s0,sp,32
     114:	00100793          	addi	a5,zero,1
     118:	fef42623          	sw	a5,-20(s0)
     11c:	deadc7b7          	lui	a5,0xdeadc
     120:	eef78713          	addi	a4,a5,-273 # 0xdeadbeef
     124:	deadc7b7          	lui	a5,0xdeadc
     128:	eef78793          	addi	a5,a5,-273 # 0xdeadbeef
     12c:	00f70463          	beq	a4,a5,0x134
     130:	fe042623          	sw	zero,-20(s0)
     134:	cafec7b7          	lui	a5,0xcafec
     138:	abe78713          	addi	a4,a5,-1346 # 0xcafebabe
     13c:	cafec7b7          	lui	a5,0xcafec
     140:	abe78793          	addi	a5,a5,-1346 # 0xcafebabe
     144:	00f70463          	beq	a4,a5,0x14c
     148:	fe042623          	sw	zero,-20(s0)
     14c:	123457b7          	lui	a5,0x12345
     150:	67878713          	addi	a4,a5,1656 # 0x12345678
     154:	123457b7          	lui	a5,0x12345
     158:	67878793          	addi	a5,a5,1656 # 0x12345678
     15c:	00f70463          	beq	a4,a5,0x164
     160:	fe042623          	sw	zero,-20(s0)
     164:	a5a5a7b7          	lui	a5,0xa5a5a
     168:	5a578713          	addi	a4,a5,1445 # 0xa5a5a5a5
     16c:	a5a5a7b7          	lui	a5,0xa5a5a
     170:	5a578793          	addi	a5,a5,1445 # 0xa5a5a5a5
     174:	00f70463          	beq	a4,a5,0x17c
     178:	fe042623          	sw	zero,-20(s0)
     17c:	000107b7          	lui	a5,0x10
     180:	01078793          	addi	a5,a5,16 # 0x10010
     184:	0007a703          	lw	a4,0(a5)
     188:	111117b7          	lui	a5,0x11111
     18c:	11178793          	addi	a5,a5,273 # 0x11111111
     190:	00f70463          	beq	a4,a5,0x198
     194:	fe042623          	sw	zero,-20(s0)
     198:	000107b7          	lui	a5,0x10
     19c:	01078793          	addi	a5,a5,16 # 0x10010
     1a0:	00c7a703          	lw	a4,12(a5)
     1a4:	444447b7          	lui	a5,0x44444
     1a8:	44478793          	addi	a5,a5,1092 # 0x44444444
     1ac:	00f70463          	beq	a4,a5,0x1b4
     1b0:	fe042623          	sw	zero,-20(s0)
     1b4:	fe042423          	sw	zero,-24(s0)
     1b8:	0300006f          	jal	zero,0x1e8
     1bc:	000107b7          	lui	a5,0x10
     1c0:	05078713          	addi	a4,a5,80 # 0x10050
     1c4:	fe842783          	lw	a5,-24(s0)
     1c8:	00279793          	slli	a5,a5,0x2
     1cc:	00f707b3          	add	a5,a4,a5
     1d0:	0007a783          	lw	a5,0(a5)
     1d4:	00078463          	beq	a5,zero,0x1dc
     1d8:	fe042623          	sw	zero,-20(s0)
     1dc:	fe842783          	lw	a5,-24(s0)
     1e0:	00178793          	addi	a5,a5,1
     1e4:	fef42423          	sw	a5,-24(s0)
     1e8:	fe842703          	lw	a4,-24(s0)
     1ec:	00700793          	addi	a5,zero,7
     1f0:	fce7d6e3          	bge	a5,a4,0x1bc
     1f4:	fec42503          	lw	a0,-20(s0)
     1f8:	ea1ff0ef          	jal	ra,0x98
     1fc:	00000013          	addi	zero,zero,0
     200:	01c12083          	lw	ra,28(sp)
     204:	01812403          	lw	s0,24(sp)
     208:	02010113          	addi	sp,sp,32
     20c:	00008067          	jalr	zero,0(ra)
     210:	fe010113          	addi	sp,sp,-32
     214:	00112e23          	sw	ra,28(sp)
     218:	00812c23          	sw	s0,24(sp)
     21c:	02010413          	addi	s0,sp,32
     220:	fea42623          	sw	a0,-20(s0)
     224:	fec42783          	lw	a5,-20(s0)
     228:	7ff78793          	addi	a5,a5,2047
     22c:	00078513          	addi	a0,a5,0
     230:	01c12083          	lw	ra,28(sp)
     234:	01812403          	lw	s0,24(sp)
     238:	02010113          	addi	sp,sp,32
     23c:	00008067          	jalr	zero,0(ra)
     240:	fd010113          	addi	sp,sp,-48
     244:	02112623          	sw	ra,44(sp)
     248:	02812423          	sw	s0,40(sp)
     24c:	03010413          	addi	s0,sp,48
     250:	fca42e23          	sw	a0,-36(s0)
     254:	fdc42783          	lw	a5,-36(s0)
     258:	7ff7a793          	slti	a5,a5,2047
     25c:	fef42623          	sw	a5,-20(s0)
     260:	fec42783          	lw	a5,-20(s0)
     264:	00078513          	addi	a0,a5,0
     268:	02c12083          	lw	ra,44(sp)
     26c:	02812403          	lw	s0,40(sp)
     270:	03010113          	addi	sp,sp,48
     274:	00008067          	jalr	zero,0(ra)
     278:	fe010113          	addi	sp,sp,-32
     27c:	00112e23          	sw	ra,28(sp)
     280:	00812c23          	sw	s0,24(sp)
     284:	02010413          	addi	s0,sp,32
     288:	fea42623          	sw	a0,-20(s0)
     28c:	fec42783          	lw	a5,-20(s0)
     290:	0017b793          	sltiu	a5,a5,1
     294:	0ff7f793          	andi	a5,a5,255
     298:	00078513          	addi	a0,a5,0
     29c:	01c12083          	lw	ra,28(sp)
     2a0:	01812403          	lw	s0,24(sp)
     2a4:	02010113          	addi	sp,sp,32
     2a8:	00008067          	jalr	zero,0(ra)
     2ac:	fe010113          	addi	sp,sp,-32
     2b0:	00112e23          	sw	ra,28(sp)
     2b4:	00812c23          	sw	s0,24(sp)
     2b8:	02010413          	addi	s0,sp,32
     2bc:	fea42623          	sw	a0,-20(s0)
     2c0:	fec42783          	lw	a5,-20(s0)
     2c4:	fff7c793          	xori	a5,a5,-1
     2c8:	00078513          	addi	a0,a5,0
     2cc:	01c12083          	lw	ra,28(sp)
     2d0:	01812403          	lw	s0,24(sp)
     2d4:	02010113          	addi	sp,sp,32
     2d8:	00008067          	jalr	zero,0(ra)
     2dc:	fe010113          	addi	sp,sp,-32
     2e0:	00112e23          	sw	ra,28(sp)
     2e4:	00812c23          	sw	s0,24(sp)
     2e8:	02010413          	addi	s0,sp,32
     2ec:	fea42623          	sw	a0,-20(s0)
     2f0:	fec42783          	lw	a5,-20(s0)
     2f4:	5a57e793          	ori	a5,a5,1445
     2f8:	00078513          	addi	a0,a5,0
     2fc:	01c12083          	lw	ra,28(sp)
     300:	01812403          	lw	s0,24(sp)
     304:	02010113          	addi	sp,sp,32
     308:	00008067          	jalr	zero,0(ra)
     30c:	fe010113          	addi	sp,sp,-32
     310:	00112e23          	sw	ra,28(sp)
     314:	00812c23          	sw	s0,24(sp)
     318:	02010413          	addi	s0,sp,32
     31c:	fea42623          	sw	a0,-20(s0)
     320:	fec42783          	lw	a5,-20(s0)
     324:	3ff7f793          	andi	a5,a5,1023
     328:	00078513          	addi	a0,a5,0
     32c:	01c12083          	lw	ra,28(sp)
     330:	01812403          	lw	s0,24(sp)
     334:	02010113          	addi	sp,sp,32
     338:	00008067          	jalr	zero,0(ra)
     33c:	fe010113          	addi	sp,sp,-32
     340:	00112e23          	sw	ra,28(sp)
     344:	00812c23          	sw	s0,24(sp)
     348:	02010413          	addi	s0,sp,32
     34c:	fea42623          	sw	a0,-20(s0)
     350:	fec42783          	lw	a5,-20(s0)
     354:	00479793          	slli	a5,a5,0x4
     358:	00078513          	addi	a0,a5,0
     35c:	01c12083          	lw	ra,28(sp)
     360:	01812403          	lw	s0,24(sp)
     364:	02010113          	addi	sp,sp,32
     368:	00008067          	jalr	zero,0(ra)
     36c:	fe010113          	addi	sp,sp,-32
     370:	00112e23          	sw	ra,28(sp)
     374:	00812c23          	sw	s0,24(sp)
     378:	02010413          	addi	s0,sp,32
     37c:	fea42623          	sw	a0,-20(s0)
     380:	fec42783          	lw	a5,-20(s0)
     384:	0047d793          	srli	a5,a5,0x4
     388:	00078513          	addi	a0,a5,0
     38c:	01c12083          	lw	ra,28(sp)
     390:	01812403          	lw	s0,24(sp)
     394:	02010113          	addi	sp,sp,32
     398:	00008067          	jalr	zero,0(ra)
     39c:	fe010113          	addi	sp,sp,-32
     3a0:	00112e23          	sw	ra,28(sp)
     3a4:	00812c23          	sw	s0,24(sp)
     3a8:	02010413          	addi	s0,sp,32
     3ac:	fea42623          	sw	a0,-20(s0)
     3b0:	fec42783          	lw	a5,-20(s0)
     3b4:	4047d793          	srai	a5,a5,0x4
     3b8:	00078513          	addi	a0,a5,0
     3bc:	01c12083          	lw	ra,28(sp)
     3c0:	01812403          	lw	s0,24(sp)
     3c4:	02010113          	addi	sp,sp,32
     3c8:	00008067          	jalr	zero,0(ra)
     3cc:	ff010113          	addi	sp,sp,-16
     3d0:	00112623          	sw	ra,12(sp)
     3d4:	00812423          	sw	s0,8(sp)
     3d8:	01010413          	addi	s0,sp,16
     3dc:	00000513          	addi	a0,zero,0
     3e0:	e31ff0ef          	jal	ra,0x210
     3e4:	00050793          	addi	a5,a0,0
     3e8:	00078513          	addi	a0,a5,0
     3ec:	cadff0ef          	jal	ra,0x98
     3f0:	800007b7          	lui	a5,0x80000
     3f4:	ffe78513          	addi	a0,a5,-2 # 0x7ffffffe
     3f8:	e19ff0ef          	jal	ra,0x210
     3fc:	00050793          	addi	a5,a0,0
     400:	00078513          	addi	a0,a5,0
     404:	c95ff0ef          	jal	ra,0x98
     408:	fff00513          	addi	a0,zero,-1
     40c:	e05ff0ef          	jal	ra,0x210
     410:	00050793          	addi	a5,a0,0
     414:	00078513          	addi	a0,a5,0
     418:	c81ff0ef          	jal	ra,0x98
     41c:	fff00513          	addi	a0,zero,-1
     420:	e21ff0ef          	jal	ra,0x240
     424:	00050793          	addi	a5,a0,0
     428:	00078513          	addi	a0,a5,0
     42c:	c6dff0ef          	jal	ra,0x98
     430:	00000513          	addi	a0,zero,0
     434:	e0dff0ef          	jal	ra,0x240
     438:	00050793          	addi	a5,a0,0
     43c:	00078513          	addi	a0,a5,0
     440:	c59ff0ef          	jal	ra,0x98
     444:	800007b7          	lui	a5,0x80000
     448:	fff78513          	addi	a0,a5,-1 # 0x7fffffff
     44c:	df5ff0ef          	jal	ra,0x240
     450:	00050793          	addi	a5,a0,0
     454:	00078513          	addi	a0,a5,0
     458:	c41ff0ef          	jal	ra,0x98
     45c:	00000513          	addi	a0,zero,0
     460:	e19ff0ef          	jal	ra,0x278
     464:	00050793          	addi	a5,a0,0
     468:	00078513          	addi	a0,a5,0
     46c:	c2dff0ef          	jal	ra,0x98
     470:	00100513          	addi	a0,zero,1
     474:	e05ff0ef          	jal	ra,0x278
     478:	00050793          	addi	a5,a0,0
     47c:	00078513          	addi	a0,a5,0
     480:	c19ff0ef          	jal	ra,0x98
     484:	fff00513          	addi	a0,zero,-1
     488:	df1ff0ef          	jal	ra,0x278
     48c:	00050793          	addi	a5,a0,0
     490:	00078513          	addi	a0,a5,0
     494:	c05ff0ef          	jal	ra,0x98
     498:	555557b7          	lui	a5,0x55555
     49c:	55578513          	addi	a0,a5,1365 # 0x55555555
     4a0:	e0dff0ef          	jal	ra,0x2ac
     4a4:	00050793          	addi	a5,a0,0
     4a8:	00078513          	addi	a0,a5,0
     4ac:	bedff0ef          	jal	ra,0x98
     4b0:	0000a7b7          	lui	a5,0xa
     4b4:	5a078513          	addi	a0,a5,1440 # 0xa5a0
     4b8:	e25ff0ef          	jal	ra,0x2dc
     4bc:	00050793          	addi	a5,a0,0
     4c0:	00078513          	addi	a0,a5,0
     4c4:	bd5ff0ef          	jal	ra,0x98
     4c8:	800007b7          	lui	a5,0x80000
     4cc:	fff78513          	addi	a0,a5,-1 # 0x7fffffff
     4d0:	e3dff0ef          	jal	ra,0x30c
     4d4:	00050793          	addi	a5,a0,0
     4d8:	00078513          	addi	a0,a5,0
     4dc:	bbdff0ef          	jal	ra,0x98
     4e0:	00100513          	addi	a0,zero,1
     4e4:	e59ff0ef          	jal	ra,0x33c
     4e8:	00050793          	addi	a5,a0,0
     4ec:	00078513          	addi	a0,a5,0
     4f0:	ba9ff0ef          	jal	ra,0x98
     4f4:	800007b7          	lui	a5,0x80000
     4f8:	00178513          	addi	a0,a5,1 # 0x80000001
     4fc:	e41ff0ef          	jal	ra,0x33c
     500:	00050793          	addi	a5,a0,0
     504:	00078513          	addi	a0,a5,0
     508:	b91ff0ef          	jal	ra,0x98
     50c:	80000537          	lui	a0,0x80000
     510:	e5dff0ef          	jal	ra,0x36c
     514:	00050793          	addi	a5,a0,0 # 0x80000000
     518:	00078513          	addi	a0,a5,0
     51c:	b7dff0ef          	jal	ra,0x98
     520:	fff00513          	addi	a0,zero,-1
     524:	e79ff0ef          	jal	ra,0x39c
     528:	00050793          	addi	a5,a0,0
     52c:	00078513          	addi	a0,a5,0
     530:	b69ff0ef          	jal	ra,0x98
     534:	800007b7          	lui	a5,0x80000
     538:	fff78513          	addi	a0,a5,-1 # 0x7fffffff
     53c:	e61ff0ef          	jal	ra,0x39c
     540:	00050793          	addi	a5,a0,0
     544:	00078513          	addi	a0,a5,0
     548:	b51ff0ef          	jal	ra,0x98
     54c:	00000013          	addi	zero,zero,0
     550:	00c12083          	lw	ra,12(sp)
     554:	00812403          	lw	s0,8(sp)
     558:	01010113          	addi	sp,sp,16
     55c:	00008067          	jalr	zero,0(ra)
     560:	fe010113          	addi	sp,sp,-32
     564:	00112e23          	sw	ra,28(sp)
     568:	00812c23          	sw	s0,24(sp)
     56c:	02010413          	addi	s0,sp,32
     570:	fea42623          	sw	a0,-20(s0)
     574:	feb42423          	sw	a1,-24(s0)
     578:	fec42703          	lw	a4,-20(s0)
     57c:	fe842783          	lw	a5,-24(s0)
     580:	00f707b3          	add	a5,a4,a5
     584:	00078513          	addi	a0,a5,0
     588:	01c12083          	lw	ra,28(sp)
     58c:	01812403          	lw	s0,24(sp)
     590:	02010113          	addi	sp,sp,32
     594:	00008067          	jalr	zero,0(ra)
     598:	fe010113          	addi	sp,sp,-32
     59c:	00112e23          	sw	ra,28(sp)
     5a0:	00812c23          	sw	s0,24(sp)
     5a4:	02010413          	addi	s0,sp,32
     5a8:	fea42623          	sw	a0,-20(s0)
     5ac:	feb42423          	sw	a1,-24(s0)
     5b0:	fec42703          	lw	a4,-20(s0)
     5b4:	fe842783          	lw	a5,-24(s0)
     5b8:	40f707b3          	sub	a5,a4,a5
     5bc:	00078513          	addi	a0,a5,0
     5c0:	01c12083          	lw	ra,28(sp)
     5c4:	01812403          	lw	s0,24(sp)
     5c8:	02010113          	addi	sp,sp,32
     5cc:	00008067          	jalr	zero,0(ra)
     5d0:	fe010113          	addi	sp,sp,-32
     5d4:	00112e23          	sw	ra,28(sp)
     5d8:	00812c23          	sw	s0,24(sp)
     5dc:	02010413          	addi	s0,sp,32
     5e0:	fea42623          	sw	a0,-20(s0)
     5e4:	feb42423          	sw	a1,-24(s0)
     5e8:	fe842783          	lw	a5,-24(s0)
     5ec:	01f7f793          	andi	a5,a5,31
     5f0:	fec42703          	lw	a4,-20(s0)
     5f4:	00f717b3          	sll	a5,a4,a5
     5f8:	00078513          	addi	a0,a5,0
     5fc:	01c12083          	lw	ra,28(sp)
     600:	01812403          	lw	s0,24(sp)
     604:	02010113          	addi	sp,sp,32
     608:	00008067          	jalr	zero,0(ra)
     60c:	fe010113          	addi	sp,sp,-32
     610:	00112e23          	sw	ra,28(sp)
     614:	00812c23          	sw	s0,24(sp)
     618:	02010413          	addi	s0,sp,32
     61c:	fea42623          	sw	a0,-20(s0)
     620:	feb42423          	sw	a1,-24(s0)
     624:	fec42703          	lw	a4,-20(s0)
     628:	fe842783          	lw	a5,-24(s0)
     62c:	00f727b3          	slt	a5,a4,a5
     630:	0ff7f793          	andi	a5,a5,255
     634:	00078513          	addi	a0,a5,0
     638:	01c12083          	lw	ra,28(sp)
     63c:	01812403          	lw	s0,24(sp)
     640:	02010113          	addi	sp,sp,32
     644:	00008067          	jalr	zero,0(ra)
     648:	fe010113          	addi	sp,sp,-32
     64c:	00112e23          	sw	ra,28(sp)
     650:	00812c23          	sw	s0,24(sp)
     654:	02010413          	addi	s0,sp,32
     658:	fea42623          	sw	a0,-20(s0)
     65c:	feb42423          	sw	a1,-24(s0)
     660:	fec42703          	lw	a4,-20(s0)
     664:	fe842783          	lw	a5,-24(s0)
     668:	00f737b3          	sltu	a5,a4,a5
     66c:	0ff7f793          	andi	a5,a5,255
     670:	00078513          	addi	a0,a5,0
     674:	01c12083          	lw	ra,28(sp)
     678:	01812403          	lw	s0,24(sp)
     67c:	02010113          	addi	sp,sp,32
     680:	00008067          	jalr	zero,0(ra)
     684:	fe010113          	addi	sp,sp,-32
     688:	00112e23          	sw	ra,28(sp)
     68c:	00812c23          	sw	s0,24(sp)
     690:	02010413          	addi	s0,sp,32
     694:	fea42623          	sw	a0,-20(s0)
     698:	feb42423          	sw	a1,-24(s0)
     69c:	fec42703          	lw	a4,-20(s0)
     6a0:	fe842783          	lw	a5,-24(s0)
     6a4:	00f747b3          	xor	a5,a4,a5
     6a8:	00078513          	addi	a0,a5,0
     6ac:	01c12083          	lw	ra,28(sp)
     6b0:	01812403          	lw	s0,24(sp)
     6b4:	02010113          	addi	sp,sp,32
     6b8:	00008067          	jalr	zero,0(ra)
     6bc:	fe010113          	addi	sp,sp,-32
     6c0:	00112e23          	sw	ra,28(sp)
     6c4:	00812c23          	sw	s0,24(sp)
     6c8:	02010413          	addi	s0,sp,32
     6cc:	fea42623          	sw	a0,-20(s0)
     6d0:	feb42423          	sw	a1,-24(s0)
     6d4:	fe842783          	lw	a5,-24(s0)
     6d8:	01f7f793          	andi	a5,a5,31
     6dc:	fec42703          	lw	a4,-20(s0)
     6e0:	00f757b3          	srl	a5,a4,a5
     6e4:	00078513          	addi	a0,a5,0
     6e8:	01c12083          	lw	ra,28(sp)
     6ec:	01812403          	lw	s0,24(sp)
     6f0:	02010113          	addi	sp,sp,32
     6f4:	00008067          	jalr	zero,0(ra)
     6f8:	fe010113          	addi	sp,sp,-32
     6fc:	00112e23          	sw	ra,28(sp)
     700:	00812c23          	sw	s0,24(sp)
     704:	02010413          	addi	s0,sp,32
     708:	fea42623          	sw	a0,-20(s0)
     70c:	feb42423          	sw	a1,-24(s0)
     710:	fe842783          	lw	a5,-24(s0)
     714:	01f7f793          	andi	a5,a5,31
     718:	fec42703          	lw	a4,-20(s0)
     71c:	40f757b3          	sra	a5,a4,a5
     720:	00078513          	addi	a0,a5,0
     724:	01c12083          	lw	ra,28(sp)
     728:	01812403          	lw	s0,24(sp)
     72c:	02010113          	addi	sp,sp,32
     730:	00008067          	jalr	zero,0(ra)
     734:	fe010113          	addi	sp,sp,-32
     738:	00112e23          	sw	ra,28(sp)
     73c:	00812c23          	sw	s0,24(sp)
     740:	02010413          	addi	s0,sp,32
     744:	fea42623          	sw	a0,-20(s0)
     748:	feb42423          	sw	a1,-24(s0)
     74c:	fec42703          	lw	a4,-20(s0)
     750:	fe842783          	lw	a5,-24(s0)
     754:	00f767b3          	or	a5,a4,a5
     758:	00078513          	addi	a0,a5,0
     75c:	01c12083          	lw	ra,28(sp)
     760:	01812403          	lw	s0,24(sp)
     764:	02010113          	addi	sp,sp,32
     768:	00008067          	jalr	zero,0(ra)
     76c:	fe010113          	addi	sp,sp,-32
     770:	00112e23          	sw	ra,28(sp)
     774:	00812c23          	sw	s0,24(sp)
     778:	02010413          	addi	s0,sp,32
     77c:	fea42623          	sw	a0,-20(s0)
     780:	feb42423          	sw	a1,-24(s0)
     784:	fec42703          	lw	a4,-20(s0)
     788:	fe842783          	lw	a5,-24(s0)
     78c:	00f777b3          	and	a5,a4,a5
     790:	00078513          	addi	a0,a5,0
     794:	01c12083          	lw	ra,28(sp)
     798:	01812403          	lw	s0,24(sp)
     79c:	02010113          	addi	sp,sp,32
     7a0:	00008067          	jalr	zero,0(ra)
     7a4:	fe010113          	addi	sp,sp,-32
     7a8:	00112e23          	sw	ra,28(sp)
     7ac:	00812c23          	sw	s0,24(sp)
     7b0:	02010413          	addi	s0,sp,32
     7b4:	800007b7          	lui	a5,0x80000
     7b8:	fef42623          	sw	a5,-20(s0)
     7bc:	800007b7          	lui	a5,0x80000
     7c0:	fff78793          	addi	a5,a5,-1 # 0x7fffffff
     7c4:	fef42423          	sw	a5,-24(s0)
     7c8:	800007b7          	lui	a5,0x80000
     7cc:	fef42223          	sw	a5,-28(s0)
     7d0:	800007b7          	lui	a5,0x80000
     7d4:	fff78793          	addi	a5,a5,-1 # 0x7fffffff
     7d8:	fef42023          	sw	a5,-32(s0)
     7dc:	fe842583          	lw	a1,-24(s0)
     7e0:	fec42503          	lw	a0,-20(s0)
     7e4:	d7dff0ef          	jal	ra,0x560
     7e8:	00050793          	addi	a5,a0,0
     7ec:	00078513          	addi	a0,a5,0
     7f0:	8a9ff0ef          	jal	ra,0x98
     7f4:	fec42583          	lw	a1,-20(s0)
     7f8:	fe842503          	lw	a0,-24(s0)
     7fc:	d9dff0ef          	jal	ra,0x598
     800:	00050793          	addi	a5,a0,0
     804:	00078513          	addi	a0,a5,0
     808:	891ff0ef          	jal	ra,0x98
     80c:	01f00593          	addi	a1,zero,31
     810:	00100513          	addi	a0,zero,1
     814:	dbdff0ef          	jal	ra,0x5d0
     818:	00050793          	addi	a5,a0,0
     81c:	00078513          	addi	a0,a5,0
     820:	879ff0ef          	jal	ra,0x98
     824:	00100593          	addi	a1,zero,1
     828:	fe442503          	lw	a0,-28(s0)
     82c:	da5ff0ef          	jal	ra,0x5d0
     830:	00050793          	addi	a5,a0,0
     834:	00078513          	addi	a0,a5,0
     838:	861ff0ef          	jal	ra,0x98
     83c:	fe842583          	lw	a1,-24(s0)
     840:	fec42503          	lw	a0,-20(s0)
     844:	dc9ff0ef          	jal	ra,0x60c
     848:	00050793          	addi	a5,a0,0
     84c:	00078513          	addi	a0,a5,0
     850:	849ff0ef          	jal	ra,0x98
     854:	fec42583          	lw	a1,-20(s0)
     858:	fe842503          	lw	a0,-24(s0)
     85c:	db1ff0ef          	jal	ra,0x60c
     860:	00050793          	addi	a5,a0,0
     864:	00078513          	addi	a0,a5,0
     868:	831ff0ef          	jal	ra,0x98
     86c:	fe042583          	lw	a1,-32(s0)
     870:	fe442503          	lw	a0,-28(s0)
     874:	dd5ff0ef          	jal	ra,0x648
     878:	00050793          	addi	a5,a0,0
     87c:	00078513          	addi	a0,a5,0
     880:	819ff0ef          	jal	ra,0x98
     884:	fe442583          	lw	a1,-28(s0)
     888:	fe042503          	lw	a0,-32(s0)
     88c:	dbdff0ef          	jal	ra,0x648
     890:	00050793          	addi	a5,a0,0
     894:	00078513          	addi	a0,a5,0
     898:	801ff0ef          	jal	ra,0x98
     89c:	aaaab7b7          	lui	a5,0xaaaab
     8a0:	aaa78593          	addi	a1,a5,-1366 # 0xaaaaaaaa
     8a4:	555557b7          	lui	a5,0x55555
     8a8:	55578513          	addi	a0,a5,1365 # 0x55555555
     8ac:	dd9ff0ef          	jal	ra,0x684
     8b0:	00050793          	addi	a5,a0,0
     8b4:	00078513          	addi	a0,a5,0
     8b8:	fe0ff0ef          	jal	ra,0x98
     8bc:	00100593          	addi	a1,zero,1
     8c0:	fe442503          	lw	a0,-28(s0)
     8c4:	df9ff0ef          	jal	ra,0x6bc
     8c8:	00050793          	addi	a5,a0,0
     8cc:	00078513          	addi	a0,a5,0
     8d0:	fc8ff0ef          	jal	ra,0x98
     8d4:	00100593          	addi	a1,zero,1
     8d8:	fec42503          	lw	a0,-20(s0)
     8dc:	e1dff0ef          	jal	ra,0x6f8
     8e0:	00050793          	addi	a5,a0,0
     8e4:	00078513          	addi	a0,a5,0
     8e8:	fb0ff0ef          	jal	ra,0x98
     8ec:	ff0107b7          	lui	a5,0xff010
     8f0:	f0078593          	addi	a1,a5,-256 # 0xff00ff00
     8f4:	00ff07b7          	lui	a5,0xff0
     8f8:	0ff78513          	addi	a0,a5,255 # 0xff00ff
     8fc:	e39ff0ef          	jal	ra,0x734
     900:	00050793          	addi	a5,a0,0
     904:	00078513          	addi	a0,a5,0
     908:	f90ff0ef          	jal	ra,0x98
     90c:	0ff017b7          	lui	a5,0xff01
     910:	ff078593          	addi	a1,a5,-16 # 0xff00ff0
     914:	f0f0f7b7          	lui	a5,0xf0f0f
     918:	0f078513          	addi	a0,a5,240 # 0xf0f0f0f0
     91c:	e51ff0ef          	jal	ra,0x76c
     920:	00050793          	addi	a5,a0,0
     924:	00078513          	addi	a0,a5,0
     928:	f70ff0ef          	jal	ra,0x98
     92c:	00000013          	addi	zero,zero,0
     930:	01c12083          	lw	ra,28(sp)
     934:	01812403          	lw	s0,24(sp)
     938:	02010113          	addi	sp,sp,32
     93c:	00008067          	jalr	zero,0(ra)
     940:	fe010113          	addi	sp,sp,-32
     944:	00112e23          	sw	ra,28(sp)
     948:	00812c23          	sw	s0,24(sp)
     94c:	02010413          	addi	s0,sp,32
     950:	fea42623          	sw	a0,-20(s0)
     954:	feb42423          	sw	a1,-24(s0)
     958:	fec42703          	lw	a4,-20(s0)
     95c:	fe842783          	lw	a5,-24(s0)
     960:	00f71663          	bne	a4,a5,0x96c
     964:	00b00793          	addi	a5,zero,11
     968:	0080006f          	jal	zero,0x970
     96c:	00d00793          	addi	a5,zero,13
     970:	00078513          	addi	a0,a5,0
     974:	01c12083          	lw	ra,28(sp)
     978:	01812403          	lw	s0,24(sp)
     97c:	02010113          	addi	sp,sp,32
     980:	00008067          	jalr	zero,0(ra)
     984:	fe010113          	addi	sp,sp,-32
     988:	00112e23          	sw	ra,28(sp)
     98c:	00812c23          	sw	s0,24(sp)
     990:	02010413          	addi	s0,sp,32
     994:	fea42623          	sw	a0,-20(s0)
     998:	feb42423          	sw	a1,-24(s0)
     99c:	fec42703          	lw	a4,-20(s0)
     9a0:	fe842783          	lw	a5,-24(s0)
     9a4:	00f70663          	beq	a4,a5,0x9b0
     9a8:	01100793          	addi	a5,zero,17
     9ac:	0080006f          	jal	zero,0x9b4
     9b0:	01300793          	addi	a5,zero,19
     9b4:	00078513          	addi	a0,a5,0
     9b8:	01c12083          	lw	ra,28(sp)
     9bc:	01812403          	lw	s0,24(sp)
     9c0:	02010113          	addi	sp,sp,32
     9c4:	00008067          	jalr	zero,0(ra)
     9c8:	fe010113          	addi	sp,sp,-32
     9cc:	00112e23          	sw	ra,28(sp)
     9d0:	00812c23          	sw	s0,24(sp)
     9d4:	02010413          	addi	s0,sp,32
     9d8:	fea42623          	sw	a0,-20(s0)
     9dc:	feb42423          	sw	a1,-24(s0)
     9e0:	fec42703          	lw	a4,-20(s0)
     9e4:	fe842783          	lw	a5,-24(s0)
     9e8:	00f75663          	bge	a4,a5,0x9f4
     9ec:	01700793          	addi	a5,zero,23
     9f0:	0080006f          	jal	zero,0x9f8
     9f4:	01d00793          	addi	a5,zero,29
     9f8:	00078513          	addi	a0,a5,0
     9fc:	01c12083          	lw	ra,28(sp)
     a00:	01812403          	lw	s0,24(sp)
     a04:	02010113          	addi	sp,sp,32
     a08:	00008067          	jalr	zero,0(ra)
     a0c:	fe010113          	addi	sp,sp,-32
     a10:	00112e23          	sw	ra,28(sp)
     a14:	00812c23          	sw	s0,24(sp)
     a18:	02010413          	addi	s0,sp,32
     a1c:	fea42623          	sw	a0,-20(s0)
     a20:	feb42423          	sw	a1,-24(s0)
     a24:	fec42703          	lw	a4,-20(s0)
     a28:	fe842783          	lw	a5,-24(s0)
     a2c:	00f74663          	blt	a4,a5,0xa38
     a30:	01f00793          	addi	a5,zero,31
     a34:	0080006f          	jal	zero,0xa3c
     a38:	02500793          	addi	a5,zero,37
     a3c:	00078513          	addi	a0,a5,0
     a40:	01c12083          	lw	ra,28(sp)
     a44:	01812403          	lw	s0,24(sp)
     a48:	02010113          	addi	sp,sp,32
     a4c:	00008067          	jalr	zero,0(ra)
     a50:	fe010113          	addi	sp,sp,-32
     a54:	00112e23          	sw	ra,28(sp)
     a58:	00812c23          	sw	s0,24(sp)
     a5c:	02010413          	addi	s0,sp,32
     a60:	fea42623          	sw	a0,-20(s0)
     a64:	feb42423          	sw	a1,-24(s0)
     a68:	fec42703          	lw	a4,-20(s0)
     a6c:	fe842783          	lw	a5,-24(s0)
     a70:	00f77663          	bgeu	a4,a5,0xa7c
     a74:	02900793          	addi	a5,zero,41
     a78:	0080006f          	jal	zero,0xa80
     a7c:	02b00793          	addi	a5,zero,43
     a80:	00078513          	addi	a0,a5,0
     a84:	01c12083          	lw	ra,28(sp)
     a88:	01812403          	lw	s0,24(sp)
     a8c:	02010113          	addi	sp,sp,32
     a90:	00008067          	jalr	zero,0(ra)
     a94:	fe010113          	addi	sp,sp,-32
     a98:	00112e23          	sw	ra,28(sp)
     a9c:	00812c23          	sw	s0,24(sp)
     aa0:	02010413          	addi	s0,sp,32
     aa4:	fea42623          	sw	a0,-20(s0)
     aa8:	feb42423          	sw	a1,-24(s0)
     aac:	fec42703          	lw	a4,-20(s0)
     ab0:	fe842783          	lw	a5,-24(s0)
     ab4:	00f76663          	bltu	a4,a5,0xac0
     ab8:	02f00793          	addi	a5,zero,47
     abc:	0080006f          	jal	zero,0xac4
     ac0:	03500793          	addi	a5,zero,53
     ac4:	00078513          	addi	a0,a5,0
     ac8:	01c12083          	lw	ra,28(sp)
     acc:	01812403          	lw	s0,24(sp)
     ad0:	02010113          	addi	sp,sp,32
     ad4:	00008067          	jalr	zero,0(ra)
     ad8:	ff010113          	addi	sp,sp,-16
     adc:	00112623          	sw	ra,12(sp)
     ae0:	00812423          	sw	s0,8(sp)
     ae4:	01010413          	addi	s0,sp,16
     ae8:	00700593          	addi	a1,zero,7
     aec:	00700513          	addi	a0,zero,7
     af0:	e51ff0ef          	jal	ra,0x940
     af4:	00050793          	addi	a5,a0,0
     af8:	00078513          	addi	a0,a5,0
     afc:	d9cff0ef          	jal	ra,0x98
     b00:	00800593          	addi	a1,zero,8
     b04:	00700513          	addi	a0,zero,7
     b08:	e39ff0ef          	jal	ra,0x940
     b0c:	00050793          	addi	a5,a0,0
     b10:	00078513          	addi	a0,a5,0
     b14:	d84ff0ef          	jal	ra,0x98
     b18:	00700593          	addi	a1,zero,7
     b1c:	00700513          	addi	a0,zero,7
     b20:	e65ff0ef          	jal	ra,0x984
     b24:	00050793          	addi	a5,a0,0
     b28:	00078513          	addi	a0,a5,0
     b2c:	d6cff0ef          	jal	ra,0x98
     b30:	00800593          	addi	a1,zero,8
     b34:	00700513          	addi	a0,zero,7
     b38:	e4dff0ef          	jal	ra,0x984
     b3c:	00050793          	addi	a5,a0,0
     b40:	00078513          	addi	a0,a5,0
     b44:	d54ff0ef          	jal	ra,0x98
     b48:	00100593          	addi	a1,zero,1
     b4c:	fff00513          	addi	a0,zero,-1
     b50:	e79ff0ef          	jal	ra,0x9c8
     b54:	00050793          	addi	a5,a0,0
     b58:	00078513          	addi	a0,a5,0
     b5c:	d3cff0ef          	jal	ra,0x98
     b60:	fff00593          	addi	a1,zero,-1
     b64:	00100513          	addi	a0,zero,1
     b68:	e61ff0ef          	jal	ra,0x9c8
     b6c:	00050793          	addi	a5,a0,0
     b70:	00078513          	addi	a0,a5,0
     b74:	d24ff0ef          	jal	ra,0x98
     b78:	00100593          	addi	a1,zero,1
     b7c:	fff00513          	addi	a0,zero,-1
     b80:	e8dff0ef          	jal	ra,0xa0c
     b84:	00050793          	addi	a5,a0,0
     b88:	00078513          	addi	a0,a5,0
     b8c:	d0cff0ef          	jal	ra,0x98
     b90:	fff00593          	addi	a1,zero,-1
     b94:	00100513          	addi	a0,zero,1
     b98:	e75ff0ef          	jal	ra,0xa0c
     b9c:	00050793          	addi	a5,a0,0
     ba0:	00078513          	addi	a0,a5,0
     ba4:	cf4ff0ef          	jal	ra,0x98
     ba8:	00100593          	addi	a1,zero,1
     bac:	fff00513          	addi	a0,zero,-1
     bb0:	ea1ff0ef          	jal	ra,0xa50
     bb4:	00050793          	addi	a5,a0,0
     bb8:	00078513          	addi	a0,a5,0
     bbc:	cdcff0ef          	jal	ra,0x98
     bc0:	fff00593          	addi	a1,zero,-1
     bc4:	00100513          	addi	a0,zero,1
     bc8:	e89ff0ef          	jal	ra,0xa50
     bcc:	00050793          	addi	a5,a0,0
     bd0:	00078513          	addi	a0,a5,0
     bd4:	cc4ff0ef          	jal	ra,0x98
     bd8:	00100593          	addi	a1,zero,1
     bdc:	fff00513          	addi	a0,zero,-1
     be0:	eb5ff0ef          	jal	ra,0xa94
     be4:	00050793          	addi	a5,a0,0
     be8:	00078513          	addi	a0,a5,0
     bec:	cacff0ef          	jal	ra,0x98
     bf0:	fff00593          	addi	a1,zero,-1
     bf4:	00100513          	addi	a0,zero,1
     bf8:	e9dff0ef          	jal	ra,0xa94
     bfc:	00050793          	addi	a5,a0,0
     c00:	00078513          	addi	a0,a5,0
     c04:	c94ff0ef          	jal	ra,0x98
     c08:	00000013          	addi	zero,zero,0
     c0c:	00c12083          	lw	ra,12(sp)
     c10:	00812403          	lw	s0,8(sp)
     c14:	01010113          	addi	sp,sp,16
     c18:	00008067          	jalr	zero,0(ra)
     c1c:	fe010113          	addi	sp,sp,-32
     c20:	00112e23          	sw	ra,28(sp)
     c24:	00812c23          	sw	s0,24(sp)
     c28:	02010413          	addi	s0,sp,32
     c2c:	fe042623          	sw	zero,-20(s0)
     c30:	0540006f          	jal	zero,0xc84
     c34:	fec42703          	lw	a4,-20(s0)
     c38:	000107b7          	lui	a5,0x10
     c3c:	03078793          	addi	a5,a5,48 # 0x10030
     c40:	00f707b3          	add	a5,a4,a5
     c44:	00078783          	lb	a5,0(a5)
     c48:	fef42223          	sw	a5,-28(s0)
     c4c:	fe442783          	lw	a5,-28(s0)
     c50:	00078513          	addi	a0,a5,0
     c54:	c44ff0ef          	jal	ra,0x98
     c58:	000107b7          	lui	a5,0x10
     c5c:	03878713          	addi	a4,a5,56 # 0x10038
     c60:	fec42783          	lw	a5,-20(s0)
     c64:	00f707b3          	add	a5,a4,a5
     c68:	0007c783          	lbu	a5,0(a5)
     c6c:	0ff7f793          	andi	a5,a5,255
     c70:	00078513          	addi	a0,a5,0
     c74:	c24ff0ef          	jal	ra,0x98
     c78:	fec42783          	lw	a5,-20(s0)
     c7c:	00178793          	addi	a5,a5,1
     c80:	fef42623          	sw	a5,-20(s0)
     c84:	fec42703          	lw	a4,-20(s0)
     c88:	00300793          	addi	a5,zero,3
     c8c:	fae7d4e3          	bge	a5,a4,0xc34
     c90:	fe042623          	sw	zero,-20(s0)
     c94:	0600006f          	jal	zero,0xcf4
     c98:	fec42783          	lw	a5,-20(s0)
     c9c:	00179713          	slli	a4,a5,0x1
     ca0:	000107b7          	lui	a5,0x10
     ca4:	04078793          	addi	a5,a5,64 # 0x10040
     ca8:	00f707b3          	add	a5,a4,a5
     cac:	00079783          	lh	a5,0(a5)
     cb0:	fef42423          	sw	a5,-24(s0)
     cb4:	fe842783          	lw	a5,-24(s0)
     cb8:	00078513          	addi	a0,a5,0
     cbc:	bdcff0ef          	jal	ra,0x98
     cc0:	000107b7          	lui	a5,0x10
     cc4:	04878713          	addi	a4,a5,72 # 0x10048
     cc8:	fec42783          	lw	a5,-20(s0)
     ccc:	00179793          	slli	a5,a5,0x1
     cd0:	00f707b3          	add	a5,a4,a5
     cd4:	0007d783          	lhu	a5,0(a5)
     cd8:	01079793          	slli	a5,a5,0x10
     cdc:	0107d793          	srli	a5,a5,0x10
     ce0:	00078513          	addi	a0,a5,0
     ce4:	bb4ff0ef          	jal	ra,0x98
     ce8:	fec42783          	lw	a5,-20(s0)
     cec:	00178793          	addi	a5,a5,1
     cf0:	fef42623          	sw	a5,-20(s0)
     cf4:	fec42703          	lw	a4,-20(s0)
     cf8:	00300793          	addi	a5,zero,3
     cfc:	f8e7dee3          	bge	a5,a4,0xc98
     d00:	fe042623          	sw	zero,-20(s0)
     d04:	0300006f          	jal	zero,0xd34
     d08:	000107b7          	lui	a5,0x10
     d0c:	02078713          	addi	a4,a5,32 # 0x10020
     d10:	fec42783          	lw	a5,-20(s0)
     d14:	00279793          	slli	a5,a5,0x2
     d18:	00f707b3          	add	a5,a4,a5
     d1c:	0007a783          	lw	a5,0(a5)
     d20:	00078513          	addi	a0,a5,0
     d24:	b74ff0ef          	jal	ra,0x98
     d28:	fec42783          	lw	a5,-20(s0)
     d2c:	00178793          	addi	a5,a5,1
     d30:	fef42623          	sw	a5,-20(s0)
     d34:	fec42703          	lw	a4,-20(s0)
     d38:	00300793          	addi	a5,zero,3
     d3c:	fce7d6e3          	bge	a5,a4,0xd08
     d40:	fe042623          	sw	zero,-20(s0)
     d44:	0d40006f          	jal	zero,0xe18
     d48:	000107b7          	lui	a5,0x10
     d4c:	03078713          	addi	a4,a5,48 # 0x10030
     d50:	fec42783          	lw	a5,-20(s0)
     d54:	00f707b3          	add	a5,a4,a5
     d58:	0007c783          	lbu	a5,0(a5)
     d5c:	01879793          	slli	a5,a5,0x18
     d60:	4187d793          	srai	a5,a5,0x18
     d64:	05a7c793          	xori	a5,a5,90
     d68:	01879713          	slli	a4,a5,0x18
     d6c:	41875713          	srai	a4,a4,0x18
     d70:	000107b7          	lui	a5,0x10
     d74:	08478693          	addi	a3,a5,132 # 0x10084
     d78:	fec42783          	lw	a5,-20(s0)
     d7c:	00f687b3          	add	a5,a3,a5
     d80:	00e78023          	sb	a4,0(a5)
     d84:	000107b7          	lui	a5,0x10
     d88:	04078713          	addi	a4,a5,64 # 0x10040
     d8c:	fec42783          	lw	a5,-20(s0)
     d90:	00179793          	slli	a5,a5,0x1
     d94:	00f707b3          	add	a5,a4,a5
     d98:	0007d783          	lhu	a5,0(a5)
     d9c:	01079713          	slli	a4,a5,0x10
     da0:	41075713          	srai	a4,a4,0x10
     da4:	000067b7          	lui	a5,0x6
     da8:	a5a78793          	addi	a5,a5,-1446 # 0x5a5a
     dac:	00f747b3          	xor	a5,a4,a5
     db0:	01079713          	slli	a4,a5,0x10
     db4:	41075713          	srai	a4,a4,0x10
     db8:	000107b7          	lui	a5,0x10
     dbc:	08878693          	addi	a3,a5,136 # 0x10088
     dc0:	fec42783          	lw	a5,-20(s0)
     dc4:	00179793          	slli	a5,a5,0x1
     dc8:	00f687b3          	add	a5,a3,a5
     dcc:	00e79023          	sh	a4,0(a5)
     dd0:	000107b7          	lui	a5,0x10
     dd4:	02078713          	addi	a4,a5,32 # 0x10020
     dd8:	fec42783          	lw	a5,-20(s0)
     ddc:	00279793          	slli	a5,a5,0x2
     de0:	00f707b3          	add	a5,a4,a5
     de4:	0007a703          	lw	a4,0(a5)
     de8:	a5a5a7b7          	lui	a5,0xa5a5a
     dec:	5a578793          	addi	a5,a5,1445 # 0xa5a5a5a5
     df0:	00f74733          	xor	a4,a4,a5
     df4:	000107b7          	lui	a5,0x10
     df8:	07078693          	addi	a3,a5,112 # 0x10070
     dfc:	fec42783          	lw	a5,-20(s0)
     e00:	00279793          	slli	a5,a5,0x2
     e04:	00f687b3          	add	a5,a3,a5
     e08:	00e7a023          	sw	a4,0(a5)
     e0c:	fec42783          	lw	a5,-20(s0)
     e10:	00178793          	addi	a5,a5,1
     e14:	fef42623          	sw	a5,-20(s0)
     e18:	fec42703          	lw	a4,-20(s0)
     e1c:	00300793          	addi	a5,zero,3
     e20:	f2e7d4e3          	bge	a5,a4,0xd48
     e24:	fe042623          	sw	zero,-20(s0)
     e28:	07c0006f          	jal	zero,0xea4
     e2c:	000107b7          	lui	a5,0x10
     e30:	08478713          	addi	a4,a5,132 # 0x10084
     e34:	fec42783          	lw	a5,-20(s0)
     e38:	00f707b3          	add	a5,a4,a5
     e3c:	0007c783          	lbu	a5,0(a5)
     e40:	01879793          	slli	a5,a5,0x18
     e44:	4187d793          	srai	a5,a5,0x18
     e48:	00078513          	addi	a0,a5,0
     e4c:	a4cff0ef          	jal	ra,0x98
     e50:	000107b7          	lui	a5,0x10
     e54:	08878713          	addi	a4,a5,136 # 0x10088
     e58:	fec42783          	lw	a5,-20(s0)
     e5c:	00179793          	slli	a5,a5,0x1
     e60:	00f707b3          	add	a5,a4,a5
     e64:	0007d783          	lhu	a5,0(a5)
     e68:	01079793          	slli	a5,a5,0x10
     e6c:	4107d793          	srai	a5,a5,0x10
     e70:	00078513          	addi	a0,a5,0
     e74:	a24ff0ef          	jal	ra,0x98
     e78:	000107b7          	lui	a5,0x10
     e7c:	07078713          	addi	a4,a5,112 # 0x10070
     e80:	fec42783          	lw	a5,-20(s0)
     e84:	00279793          	slli	a5,a5,0x2
     e88:	00f707b3          	add	a5,a4,a5
     e8c:	0007a783          	lw	a5,0(a5)
     e90:	00078513          	addi	a0,a5,0
     e94:	a04ff0ef          	jal	ra,0x98
     e98:	fec42783          	lw	a5,-20(s0)
     e9c:	00178793          	addi	a5,a5,1
     ea0:	fef42623          	sw	a5,-20(s0)
     ea4:	fec42703          	lw	a4,-20(s0)
     ea8:	00300793          	addi	a5,zero,3
     eac:	f8e7d0e3          	bge	a5,a4,0xe2c
     eb0:	00000013          	addi	zero,zero,0
     eb4:	00000013          	addi	zero,zero,0
     eb8:	01c12083          	lw	ra,28(sp)
     ebc:	01812403          	lw	s0,24(sp)
     ec0:	02010113          	addi	sp,sp,32
     ec4:	00008067          	jalr	zero,0(ra)
     ec8:	fe010113          	addi	sp,sp,-32
     ecc:	00112e23          	sw	ra,28(sp)
     ed0:	00812c23          	sw	s0,24(sp)
     ed4:	02010413          	addi	s0,sp,32
     ed8:	fea42623          	sw	a0,-20(s0)
     edc:	feb42423          	sw	a1,-24(s0)
     ee0:	fec42703          	lw	a4,-20(s0)
     ee4:	fe842783          	lw	a5,-24(s0)
     ee8:	00f707b3          	add	a5,a4,a5
     eec:	00078513          	addi	a0,a5,0
     ef0:	01c12083          	lw	ra,28(sp)
     ef4:	01812403          	lw	s0,24(sp)
     ef8:	02010113          	addi	sp,sp,32
     efc:	00008067          	jalr	zero,0(ra)
     f00:	fe010113          	addi	sp,sp,-32
     f04:	00112e23          	sw	ra,28(sp)
     f08:	00812c23          	sw	s0,24(sp)
     f0c:	02010413          	addi	s0,sp,32
     f10:	fea42623          	sw	a0,-20(s0)
     f14:	feb42423          	sw	a1,-24(s0)
     f18:	fec42703          	lw	a4,-20(s0)
     f1c:	fe842783          	lw	a5,-24(s0)
     f20:	40f707b3          	sub	a5,a4,a5
     f24:	00078513          	addi	a0,a5,0
     f28:	01c12083          	lw	ra,28(sp)
     f2c:	01812403          	lw	s0,24(sp)
     f30:	02010113          	addi	sp,sp,32
     f34:	00008067          	jalr	zero,0(ra)
     f38:	fe010113          	addi	sp,sp,-32
     f3c:	00112e23          	sw	ra,28(sp)
     f40:	00812c23          	sw	s0,24(sp)
     f44:	02010413          	addi	s0,sp,32
     f48:	fea42623          	sw	a0,-20(s0)
     f4c:	feb42423          	sw	a1,-24(s0)
     f50:	fec42223          	sw	a2,-28(s0)
     f54:	fec42783          	lw	a5,-20(s0)
     f58:	fe442583          	lw	a1,-28(s0)
     f5c:	fe842503          	lw	a0,-24(s0)
     f60:	000780e7          	jalr	ra,0(a5)
     f64:	00050793          	addi	a5,a0,0
     f68:	00078513          	addi	a0,a5,0
     f6c:	01c12083          	lw	ra,28(sp)
     f70:	01812403          	lw	s0,24(sp)
     f74:	02010113          	addi	sp,sp,32
     f78:	00008067          	jalr	zero,0(ra)
     f7c:	fe010113          	addi	sp,sp,-32
     f80:	00112e23          	sw	ra,28(sp)
     f84:	00812c23          	sw	s0,24(sp)
     f88:	02010413          	addi	s0,sp,32
     f8c:	fea42623          	sw	a0,-20(s0)
     f90:	fec42783          	lw	a5,-20(s0)
     f94:	00f04663          	blt	zero,a5,0xfa0
     f98:	00000793          	addi	a5,zero,0
     f9c:	0200006f          	jal	zero,0xfbc
     fa0:	fec42783          	lw	a5,-20(s0)
     fa4:	fff78793          	addi	a5,a5,-1
     fa8:	00078513          	addi	a0,a5,0
     fac:	fd1ff0ef          	jal	ra,0xf7c
     fb0:	00050713          	addi	a4,a0,0
     fb4:	fec42783          	lw	a5,-20(s0)
     fb8:	00f707b3          	add	a5,a4,a5
     fbc:	00078513          	addi	a0,a5,0
     fc0:	01c12083          	lw	ra,28(sp)
     fc4:	01812403          	lw	s0,24(sp)
     fc8:	02010113          	addi	sp,sp,32
     fcc:	00008067          	jalr	zero,0(ra)
     fd0:	ff010113          	addi	sp,sp,-16
     fd4:	00112623          	sw	ra,12(sp)
     fd8:	00812423          	sw	s0,8(sp)
     fdc:	01010413          	addi	s0,sp,16
     fe0:	01700593          	addi	a1,zero,23
     fe4:	06400513          	addi	a0,zero,100
     fe8:	ee1ff0ef          	jal	ra,0xec8
     fec:	00050793          	addi	a5,a0,0
     ff0:	00078513          	addi	a0,a5,0
     ff4:	8a4ff0ef          	jal	ra,0x98
     ff8:	01700593          	addi	a1,zero,23
     ffc:	06400513          	addi	a0,zero,100
    1000:	f01ff0ef          	jal	ra,0xf00
    1004:	00050793          	addi	a5,a0,0
    1008:	00078513          	addi	a0,a5,0
    100c:	88cff0ef          	jal	ra,0x98
    1010:	00800613          	addi	a2,zero,8
    1014:	00700593          	addi	a1,zero,7
    1018:	000017b7          	lui	a5,0x1
    101c:	ec878513          	addi	a0,a5,-312 # 0xec8
    1020:	f19ff0ef          	jal	ra,0xf38
    1024:	00050793          	addi	a5,a0,0
    1028:	00078513          	addi	a0,a5,0
    102c:	86cff0ef          	jal	ra,0x98
    1030:	00800613          	addi	a2,zero,8
    1034:	00700593          	addi	a1,zero,7
    1038:	000017b7          	lui	a5,0x1
    103c:	f0078513          	addi	a0,a5,-256 # 0xf00
    1040:	ef9ff0ef          	jal	ra,0xf38
    1044:	00050793          	addi	a5,a0,0
    1048:	00078513          	addi	a0,a5,0
    104c:	84cff0ef          	jal	ra,0x98
    1050:	01000513          	addi	a0,zero,16
    1054:	f29ff0ef          	jal	ra,0xf7c
    1058:	00050793          	addi	a5,a0,0
    105c:	00078513          	addi	a0,a5,0
    1060:	838ff0ef          	jal	ra,0x98
    1064:	00000013          	addi	zero,zero,0
    1068:	00c12083          	lw	ra,12(sp)
    106c:	00812403          	lw	s0,8(sp)
    1070:	01010113          	addi	sp,sp,16
    1074:	00008067          	jalr	zero,0(ra)
    1078:	fe010113          	addi	sp,sp,-32
    107c:	00112e23          	sw	ra,28(sp)
    1080:	00812c23          	sw	s0,24(sp)
    1084:	02010413          	addi	s0,sp,32
    1088:	123457b7          	lui	a5,0x12345
    108c:	fef42623          	sw	a5,-20(s0)
    1090:	fec42783          	lw	a5,-20(s0)
    1094:	00078513          	addi	a0,a5,0 # 0x12345000
    1098:	01c12083          	lw	ra,28(sp)
    109c:	01812403          	lw	s0,24(sp)
    10a0:	02010113          	addi	sp,sp,32
    10a4:	00008067          	jalr	zero,0(ra)
    10a8:	fe010113          	addi	sp,sp,-32
    10ac:	00112e23          	sw	ra,28(sp)
    10b0:	00812c23          	sw	s0,24(sp)
    10b4:	02010413          	addi	s0,sp,32
    10b8:	00001797          	auipc	a5,0x1
    10bc:	fef42623          	sw	a5,-20(s0)
    10c0:	fec42783          	lw	a5,-20(s0)
    10c4:	0107d793          	srli	a5,a5,0x10
    10c8:	00078513          	addi	a0,a5,0 # 0x20b8
    10cc:	01c12083          	lw	ra,28(sp)
    10d0:	01812403          	lw	s0,24(sp)
    10d4:	02010113          	addi	sp,sp,32
    10d8:	00008067          	jalr	zero,0(ra)
    10dc:	ff010113          	addi	sp,sp,-16
    10e0:	00112623          	sw	ra,12(sp)
    10e4:	00812423          	sw	s0,8(sp)
    10e8:	01010413          	addi	s0,sp,16
    10ec:	f8dff0ef          	jal	ra,0x1078
    10f0:	00050793          	addi	a5,a0,0
    10f4:	00078513          	addi	a0,a5,0
    10f8:	fa1fe0ef          	jal	ra,0x98
    10fc:	fadff0ef          	jal	ra,0x10a8
    1100:	00050793          	addi	a5,a0,0
    1104:	00078513          	addi	a0,a5,0
    1108:	f91fe0ef          	jal	ra,0x98
    110c:	00000013          	addi	zero,zero,0
    1110:	00c12083          	lw	ra,12(sp)
    1114:	00812403          	lw	s0,8(sp)
    1118:	01010113          	addi	sp,sp,16
    111c:	00008067          	jalr	zero,0(ra)
    1120:	fd010113          	addi	sp,sp,-48
    1124:	02112623          	sw	ra,44(sp)
    1128:	02812423          	sw	s0,40(sp)
    112c:	03010413          	addi	s0,sp,48
    1130:	fca42e23          	sw	a0,-36(s0)
    1134:	fdc42783          	lw	a5,-36(s0)
    1138:	0007a783          	lw	a5,0(a5)
    113c:	fef42623          	sw	a5,-20(s0)
    1140:	fec42783          	lw	a5,-20(s0)
    1144:	00d79793          	slli	a5,a5,0xd
    1148:	fec42703          	lw	a4,-20(s0)
    114c:	00f747b3          	xor	a5,a4,a5
    1150:	fef42623          	sw	a5,-20(s0)
    1154:	fec42783          	lw	a5,-20(s0)
    1158:	0117d793          	srli	a5,a5,0x11
    115c:	fec42703          	lw	a4,-20(s0)
    1160:	00f747b3          	xor	a5,a4,a5
    1164:	fef42623          	sw	a5,-20(s0)
    1168:	fec42783          	lw	a5,-20(s0)
    116c:	00579793          	slli	a5,a5,0x5
    1170:	fec42703          	lw	a4,-20(s0)
    1174:	00f747b3          	xor	a5,a4,a5
    1178:	fef42623          	sw	a5,-20(s0)
    117c:	fdc42783          	lw	a5,-36(s0)
    1180:	fec42703          	lw	a4,-20(s0)
    1184:	00e7a023          	sw	a4,0(a5)
    1188:	fec42783          	lw	a5,-20(s0)
    118c:	00078513          	addi	a0,a5,0
    1190:	02c12083          	lw	ra,44(sp)
    1194:	02812403          	lw	s0,40(sp)
    1198:	03010113          	addi	sp,sp,48
    119c:	00008067          	jalr	zero,0(ra)
    11a0:	fe010113          	addi	sp,sp,-32
    11a4:	00112e23          	sw	ra,28(sp)
    11a8:	00812c23          	sw	s0,24(sp)
    11ac:	02010413          	addi	s0,sp,32
    11b0:	123457b7          	lui	a5,0x12345
    11b4:	67878793          	addi	a5,a5,1656 # 0x12345678
    11b8:	fef42223          	sw	a5,-28(s0)
    11bc:	fe042623          	sw	zero,-20(s0)
    11c0:	0600006f          	jal	zero,0x1220
    11c4:	fe440793          	addi	a5,s0,-28
    11c8:	00078513          	addi	a0,a5,0
    11cc:	f55ff0ef          	jal	ra,0x1120
    11d0:	fea42423          	sw	a0,-24(s0)
    11d4:	fe842503          	lw	a0,-24(s0)
    11d8:	ec1fe0ef          	jal	ra,0x98
    11dc:	fe842783          	lw	a5,-24(s0)
    11e0:	fec42583          	lw	a1,-20(s0)
    11e4:	00078513          	addi	a0,a5,0
    11e8:	b78ff0ef          	jal	ra,0x560
    11ec:	00050793          	addi	a5,a0,0
    11f0:	00078513          	addi	a0,a5,0
    11f4:	ea5fe0ef          	jal	ra,0x98
    11f8:	a5a5a7b7          	lui	a5,0xa5a5a
    11fc:	5a578593          	addi	a1,a5,1445 # 0xa5a5a5a5
    1200:	fe842503          	lw	a0,-24(s0)
    1204:	c80ff0ef          	jal	ra,0x684
    1208:	00050793          	addi	a5,a0,0
    120c:	00078513          	addi	a0,a5,0
    1210:	e89fe0ef          	jal	ra,0x98
    1214:	fec42783          	lw	a5,-20(s0)
    1218:	00178793          	addi	a5,a5,1
    121c:	fef42623          	sw	a5,-20(s0)
    1220:	fec42703          	lw	a4,-20(s0)
    1224:	07f00793          	addi	a5,zero,127
    1228:	f8e7dee3          	bge	a5,a4,0x11c4
    122c:	00000013          	addi	zero,zero,0
    1230:	00000013          	addi	zero,zero,0
    1234:	01c12083          	lw	ra,28(sp)
    1238:	01812403          	lw	s0,24(sp)
    123c:	02010113          	addi	sp,sp,32
    1240:	00008067          	jalr	zero,0(ra)
    1244:	ff010113          	addi	sp,sp,-16
    1248:	00112623          	sw	ra,12(sp)
    124c:	00812423          	sw	s0,8(sp)
    1250:	01010413          	addi	s0,sp,16
    1254:	eb1fe0ef          	jal	ra,0x104
    1258:	974ff0ef          	jal	ra,0x3cc
    125c:	d48ff0ef          	jal	ra,0x7a4
    1260:	879ff0ef          	jal	ra,0xad8
    1264:	9b9ff0ef          	jal	ra,0xc1c
    1268:	d69ff0ef          	jal	ra,0xfd0
    126c:	e71ff0ef          	jal	ra,0x10dc
    1270:	f31ff0ef          	jal	ra,0x11a0
    1274:	000107b7          	lui	a5,0x10
    1278:	0807a703          	lw	a4,128(a5) # 0x10080
    127c:	a5a5a7b7          	lui	a5,0xa5a5a
    1280:	5a578793          	addi	a5,a5,1445 # 0xa5a5a5a5
    1284:	00f74733          	xor	a4,a4,a5
    1288:	000107b7          	lui	a5,0x10
    128c:	08e7a023          	sw	a4,128(a5) # 0x10080
    1290:	00000013          	addi	zero,zero,0
    1294:	00c12083          	lw	ra,12(sp)
    1298:	00812403          	lw	s0,8(sp)
    129c:	01010113          	addi	sp,sp,16
    12a0:	00008067          	jalr	zero,0(ra)
