
build/kernels/indirect_call/ooo4_unroll/kernels_indirect_call_ooo4_unroll.elf:     file format elf32-littleriscv


Disassembly of section .text:

00000000 <_start>:
   0:	00020117          	auipc	sp,0x20
   4:	00010113          	addi	sp,sp,0 # 20000 <__stack_top>
   8:	00000517          	auipc	a0,0x0
   c:	24c50513          	addi	a0,a0,588 # 254 <__rodata_load_start>
  10:	00010597          	auipc	a1,0x10
  14:	ff058593          	addi	a1,a1,-16 # 10000 <OPS>
  18:	00010617          	auipc	a2,0x10
  1c:	ff860613          	addi	a2,a2,-8 # 10010 <result_direct>
  20:	00c5fc63          	bgeu	a1,a2,38 <_start+0x38>
  24:	00052283          	lw	t0,0(a0)
  28:	0055a023          	sw	t0,0(a1)
  2c:	00450513          	addi	a0,a0,4
  30:	00458593          	addi	a1,a1,4
  34:	fedff06f          	jal	zero,20 <_start+0x20>
  38:	00000517          	auipc	a0,0x0
  3c:	22c50513          	addi	a0,a0,556 # 264 <__data_load_start>
  40:	00010597          	auipc	a1,0x10
  44:	fd058593          	addi	a1,a1,-48 # 10010 <result_direct>
  48:	00010617          	auipc	a2,0x10
  4c:	fc860613          	addi	a2,a2,-56 # 10010 <result_direct>
  50:	00c5fc63          	bgeu	a1,a2,68 <_start+0x68>
  54:	00052283          	lw	t0,0(a0)
  58:	0055a023          	sw	t0,0(a1)
  5c:	00450513          	addi	a0,a0,4
  60:	00458593          	addi	a1,a1,4
  64:	fedff06f          	jal	zero,50 <_start+0x50>
  68:	00010517          	auipc	a0,0x10
  6c:	fa850513          	addi	a0,a0,-88 # 10010 <result_direct>
  70:	00010597          	auipc	a1,0x10
  74:	fa058593          	addi	a1,a1,-96 # 10010 <result_direct>
  78:	00000613          	addi	a2,zero,0
  7c:	00b57863          	bgeu	a0,a1,8c <_start+0x8c>
  80:	00c52023          	sw	a2,0(a0)
  84:	00450513          	addi	a0,a0,4
  88:	ff5ff06f          	jal	zero,7c <_start+0x7c>
  8c:	00000097          	auipc	ra,0x0
  90:	188080e7          	jalr	ra,392(ra) # 214 <main>
  94:	00000073          	ecall
  98:	00100073          	ebreak

0000009c <op_add>:
  9c:	00b50533          	add	a0,a0,a1
  a0:	00008067          	jalr	zero,0(ra)

000000a4 <op_sub>:
  a4:	40b50533          	sub	a0,a0,a1
  a8:	00008067          	jalr	zero,0(ra)

000000ac <op_xor>:
  ac:	00b54533          	xor	a0,a0,a1
  b0:	00008067          	jalr	zero,0(ra)

000000b4 <op_or>:
  b4:	00b56533          	or	a0,a0,a1
  b8:	00008067          	jalr	zero,0(ra)

000000bc <run_direct.constprop.0>:
  bc:	00b00513          	addi	a0,zero,11
  c0:	00000793          	addi	a5,zero,0
  c4:	00100693          	addi	a3,zero,1
  c8:	40000593          	addi	a1,zero,1024
  cc:	00200613          	addi	a2,zero,2
  d0:	0037f713          	andi	a4,a5,3
  d4:	00d70e63          	beq	a4,a3,f0 <run_direct.constprop.0+0x34>
  d8:	02c70863          	beq	a4,a2,108 <run_direct.constprop.0+0x4c>
  dc:	02071263          	bne	a4,zero,100 <run_direct.constprop.0+0x44>
  e0:	00f50533          	add	a0,a0,a5
  e4:	00178793          	addi	a5,a5,1
  e8:	0037f713          	andi	a4,a5,3
  ec:	fed716e3          	bne	a4,a3,d8 <run_direct.constprop.0+0x1c>
  f0:	40f50533          	sub	a0,a0,a5
  f4:	00178793          	addi	a5,a5,1
  f8:	fcb79ce3          	bne	a5,a1,d0 <run_direct.constprop.0+0x14>
  fc:	00008067          	jalr	zero,0(ra)
 100:	00f56533          	or	a0,a0,a5
 104:	ff1ff06f          	jal	zero,f4 <run_direct.constprop.0+0x38>
 108:	00f54533          	xor	a0,a0,a5
 10c:	fe9ff06f          	jal	zero,f4 <run_direct.constprop.0+0x38>

00000110 <run_indirect.constprop.0>:
 110:	ff010113          	addi	sp,sp,-16
 114:	00912223          	sw	s1,4(sp)
 118:	00000593          	addi	a1,zero,0
 11c:	000104b7          	lui	s1,0x10
 120:	00b00513          	addi	a0,zero,11
 124:	00812423          	sw	s0,8(sp)
 128:	01212023          	sw	s2,0(sp)
 12c:	00112623          	sw	ra,12(sp)
 130:	00048493          	addi	s1,s1,0 # 10000 <OPS>
 134:	00000097          	auipc	ra,0x0
 138:	f68080e7          	jalr	ra,-152(ra) # 9c <op_add>
 13c:	0044af83          	lw	t6,4(s1)
 140:	40000913          	addi	s2,zero,1024
 144:	00100413          	addi	s0,zero,1
 148:	0980006f          	jal	zero,1e0 <run_indirect.constprop.0+0xd0>
 14c:	00032383          	lw	t2,0(t1)
 150:	000380e7          	jalr	ra,0(t2)
 154:	00240593          	addi	a1,s0,2
 158:	0035f613          	andi	a2,a1,3
 15c:	00261693          	slli	a3,a2,0x2
 160:	00d48733          	add	a4,s1,a3
 164:	00072803          	lw	a6,0(a4)
 168:	000800e7          	jalr	ra,0(a6)
 16c:	00340593          	addi	a1,s0,3
 170:	0035f893          	andi	a7,a1,3
 174:	00289e13          	slli	t3,a7,0x2
 178:	01c48eb3          	add	t4,s1,t3
 17c:	000eaf03          	lw	t5,0(t4)
 180:	000f00e7          	jalr	ra,0(t5)
 184:	00347593          	andi	a1,s0,3
 188:	00259f93          	slli	t6,a1,0x2
 18c:	01f487b3          	add	a5,s1,t6
 190:	0007a303          	lw	t1,0(a5)
 194:	00440593          	addi	a1,s0,4
 198:	000300e7          	jalr	ra,0(t1)
 19c:	00540593          	addi	a1,s0,5
 1a0:	0035f293          	andi	t0,a1,3
 1a4:	00229393          	slli	t2,t0,0x2
 1a8:	00748633          	add	a2,s1,t2
 1ac:	00062683          	lw	a3,0(a2)
 1b0:	000680e7          	jalr	ra,0(a3)
 1b4:	00640593          	addi	a1,s0,6
 1b8:	0035f713          	andi	a4,a1,3
 1bc:	00271813          	slli	a6,a4,0x2
 1c0:	010488b3          	add	a7,s1,a6
 1c4:	0008ae03          	lw	t3,0(a7)
 1c8:	00740413          	addi	s0,s0,7
 1cc:	000e00e7          	jalr	ra,0(t3)
 1d0:	00347e93          	andi	t4,s0,3
 1d4:	002e9f13          	slli	t5,t4,0x2
 1d8:	01e485b3          	add	a1,s1,t5
 1dc:	0005af83          	lw	t6,0(a1)
 1e0:	00040593          	addi	a1,s0,0
 1e4:	000f80e7          	jalr	ra,0(t6)
 1e8:	00140593          	addi	a1,s0,1
 1ec:	0035f793          	andi	a5,a1,3
 1f0:	00279293          	slli	t0,a5,0x2
 1f4:	00548333          	add	t1,s1,t0
 1f8:	f5259ae3          	bne	a1,s2,14c <run_indirect.constprop.0+0x3c>
 1fc:	00c12083          	lw	ra,12(sp)
 200:	00812403          	lw	s0,8(sp)
 204:	00412483          	lw	s1,4(sp)
 208:	00012903          	lw	s2,0(sp)
 20c:	01010113          	addi	sp,sp,16
 210:	00008067          	jalr	zero,0(ra)

00000214 <main>:
 214:	ff010113          	addi	sp,sp,-16
 218:	00112623          	sw	ra,12(sp)
 21c:	00812423          	sw	s0,8(sp)
 220:	00000097          	auipc	ra,0x0
 224:	ef0080e7          	jalr	ra,-272(ra) # 110 <run_indirect.constprop.0>
 228:	00050413          	addi	s0,a0,0
 22c:	00000097          	auipc	ra,0x0
 230:	e90080e7          	jalr	ra,-368(ra) # bc <run_direct.constprop.0>
 234:	000107b7          	lui	a5,0x10
 238:	00a7a823          	sw	a0,16(a5) # 10010 <result_direct>
 23c:	0107a283          	lw	t0,16(a5)
 240:	00c12083          	lw	ra,12(sp)
 244:	00812403          	lw	s0,8(sp)
 248:	00000513          	addi	a0,zero,0
 24c:	01010113          	addi	sp,sp,16
 250:	00008067          	jalr	zero,0(ra)
