
build/kernels/sum_unroll/ooo4_no_libcall/kernels_sum_unroll_ooo4_no_libcall.elf:     file format elf32-littleriscv


Disassembly of section .text:

00000000 <_start>:
   0:	00020117          	auipc	sp,0x20
   4:	00010113          	addi	sp,sp,0 # 20000 <__stack_top>
   8:	00000517          	auipc	a0,0x0
   c:	19050513          	addi	a0,a0,400 # 198 <__data_load_start>
  10:	00010597          	auipc	a1,0x10
  14:	ff058593          	addi	a1,a1,-16 # 10000 <data>
  18:	00010617          	auipc	a2,0x10
  1c:	fe860613          	addi	a2,a2,-24 # 10000 <data>
  20:	00c5fc63          	bgeu	a1,a2,38 <_start+0x38>
  24:	00052283          	lw	t0,0(a0)
  28:	0055a023          	sw	t0,0(a1)
  2c:	00450513          	addi	a0,a0,4
  30:	00458593          	addi	a1,a1,4
  34:	fedff06f          	jal	zero,20 <_start+0x20>
  38:	00000517          	auipc	a0,0x0
  3c:	16050513          	addi	a0,a0,352 # 198 <__data_load_start>
  40:	00010597          	auipc	a1,0x10
  44:	fc058593          	addi	a1,a1,-64 # 10000 <data>
  48:	00010617          	auipc	a2,0x10
  4c:	fb860613          	addi	a2,a2,-72 # 10000 <data>
  50:	00c5fc63          	bgeu	a1,a2,68 <_start+0x68>
  54:	00052283          	lw	t0,0(a0)
  58:	0055a023          	sw	t0,0(a1)
  5c:	00450513          	addi	a0,a0,4
  60:	00458593          	addi	a1,a1,4
  64:	fedff06f          	jal	zero,50 <_start+0x50>
  68:	00010517          	auipc	a0,0x10
  6c:	f9850513          	addi	a0,a0,-104 # 10000 <data>
  70:	00010597          	auipc	a1,0x10
  74:	39058593          	addi	a1,a1,912 # 10400 <sum4_signature>
  78:	00000613          	addi	a2,zero,0
  7c:	00b57863          	bgeu	a0,a1,8c <_start+0x8c>
  80:	00c52023          	sw	a2,0(a0)
  84:	00450513          	addi	a0,a0,4
  88:	ff5ff06f          	jal	zero,7c <_start+0x7c>
  8c:	00000097          	auipc	ra,0x0
  90:	0d0080e7          	jalr	ra,208(ra) # 15c <main>
  94:	00000073          	ecall
  98:	00100073          	ebreak

0000009c <sum_quad.constprop.0>:
  9c:	000107b7          	lui	a5,0x10
  a0:	00078293          	addi	t0,a5,0 # 10000 <data>
  a4:	40028e13          	addi	t3,t0,1024
  a8:	00000513          	addi	a0,zero,0
  ac:	00000693          	addi	a3,zero,0
  b0:	00000613          	addi	a2,zero,0
  b4:	00000713          	addi	a4,zero,0
  b8:	0002a303          	lw	t1,0(t0)
  bc:	0042a883          	lw	a7,4(t0)
  c0:	0082a803          	lw	a6,8(t0)
  c4:	00c2a583          	lw	a1,12(t0)
  c8:	01028293          	addi	t0,t0,16
  cc:	00670733          	add	a4,a4,t1
  d0:	01160633          	add	a2,a2,a7
  d4:	010686b3          	add	a3,a3,a6
  d8:	00b50533          	add	a0,a0,a1
  dc:	fc5e1ee3          	bne	t3,t0,b8 <sum_quad.constprop.0+0x1c>
  e0:	00c703b3          	add	t2,a4,a2
  e4:	00d38eb3          	add	t4,t2,a3
  e8:	00ae8533          	add	a0,t4,a0
  ec:	00008067          	jalr	zero,0(ra)

000000f0 <sum_single.constprop.0>:
  f0:	000107b7          	lui	a5,0x10
  f4:	00078293          	addi	t0,a5,0 # 10000 <data>
  f8:	40028693          	addi	a3,t0,1024
  fc:	00000513          	addi	a0,zero,0
 100:	0002a703          	lw	a4,0(t0)
 104:	00428293          	addi	t0,t0,4
 108:	00e50533          	add	a0,a0,a4
 10c:	fe569ae3          	bne	a3,t0,100 <sum_single.constprop.0+0x10>
 110:	00008067          	jalr	zero,0(ra)

00000114 <fill_data.constprop.0>:
 114:	000106b7          	lui	a3,0x10
 118:	00068e93          	addi	t4,a3,0 # 10000 <data>
 11c:	80000637          	lui	a2,0x80000
 120:	00c10737          	lui	a4,0xc10
 124:	400e8593          	addi	a1,t4,1024
 128:	fee70893          	addi	a7,a4,-18 # c0ffee <__stack_top+0xbeffee>
 12c:	fff60293          	addi	t0,a2,-1 # 7fffffff <__stack_top+0x7ffdffff>
 130:	00d89793          	slli	a5,a7,0xd
 134:	0117c333          	xor	t1,a5,a7
 138:	01135393          	srli	t2,t1,0x11
 13c:	00734533          	xor	a0,t1,t2
 140:	00551813          	slli	a6,a0,0x5
 144:	010548b3          	xor	a7,a0,a6
 148:	0058fe33          	and	t3,a7,t0
 14c:	01cea023          	sw	t3,0(t4)
 150:	004e8e93          	addi	t4,t4,4
 154:	fdd59ee3          	bne	a1,t4,130 <fill_data.constprop.0+0x1c>
 158:	00008067          	jalr	zero,0(ra)

0000015c <main>:
 15c:	ff010113          	addi	sp,sp,-16
 160:	00112623          	sw	ra,12(sp)
 164:	00000097          	auipc	ra,0x0
 168:	fb0080e7          	jalr	ra,-80(ra) # 114 <fill_data.constprop.0>
 16c:	00000097          	auipc	ra,0x0
 170:	f84080e7          	jalr	ra,-124(ra) # f0 <sum_single.constprop.0>
 174:	000107b7          	lui	a5,0x10
 178:	40a7a223          	sw	a0,1028(a5) # 10404 <sum1_signature>
 17c:	00000097          	auipc	ra,0x0
 180:	f20080e7          	jalr	ra,-224(ra) # 9c <sum_quad.constprop.0>
 184:	00c12083          	lw	ra,12(sp)
 188:	000102b7          	lui	t0,0x10
 18c:	40a2a023          	sw	a0,1024(t0) # 10400 <sum4_signature>
 190:	01010113          	addi	sp,sp,16
 194:	00008067          	jalr	zero,0(ra)
